Microchip Technology Inc, v1.70 (B)

Tool Name:
  c:\program files\microchip\xc16\v1.70\bin\bin\..\bin/elf-ld.exe

Command:
  -TC:\\Users\\JAB\\AppData\\Local\\Temp\\tmp00009d2c.00 \
  -TC:\\Users\\JAB\\AppData\\Local\\Temp\\tmp00009d2c.01 \
  -TC:\\Users\\JAB\\AppData\\Local\\Temp\\tmp00009d2c.02 \
  -TC:\\Users\\JAB\\AppData\\Local\\Temp\\tmp00009d2c.03 \
  -TC:\\Users\\JAB\\AppData\\Local\\Temp\\tmp00009d2c.04 \
  -TC:\\Users\\JAB\\AppData\\Local\\Temp\\tmp00009d2c.05 \
  -TC:\\Users\\JAB\\AppData\\Local\\Temp\\tmp00009d2c.06 \
  -p24FJ256GA702 \
  --mdfp=C:/Program Files/Microchip/MPLABX/v5.45/packs/Microchip/PIC24F-GA-GB_DFP/1.4.141/xc16 \
  -o \
  dist/default/debug/SerialWombat18A_18B.X.debug.elf \
  -Lc:/program files/microchip/xc16/v1.70/bin/bin/.. \
  -LC:/Program Files/Microchip/MPLABX/v5.45/packs/Microchip/PIC24F-GA-GB_DFP/1.4.141/xc16/bin/../support/PIC24F/gld \
  -Lc:/program files/microchip/xc16/v1.70/bin/bin/../../lib \
  -Lc:/program files/microchip/xc16/v1.70/bin/bin/../../support/PIC24E/gld \
  -Lc:/program files/microchip/xc16/v1.70/bin/bin/../../support/PIC24F/gld \
  -Lc:/program files/microchip/xc16/v1.70/bin/bin/../../support/PIC24H/gld \
  -Lc:/program files/microchip/xc16/v1.70/bin/bin/../../support/dsPIC30F/gld \
  -Lc:/program files/microchip/xc16/v1.70/bin/bin/../../support/dsPIC33C/gld \
  -Lc:/program files/microchip/xc16/v1.70/bin/bin/../../support/dsPIC33E/gld \
  -Lc:/program files/microchip/xc16/v1.70/bin/bin/../../support/dsPIC33F/gld \
  build/default/debug/pic24fj256ga702/mcc_generated_files/clock.o \
  build/default/debug/pic24fj256ga702/mcc_generated_files/crc.o \
  build/default/debug/pic24fj256ga702/mcc_generated_files/cvr.o \
  build/default/debug/pic24fj256ga702/mcc_generated_files/dma.o \
  build/default/debug/pic24fj256ga702/mcc_generated_files/i2c1.o \
  build/default/debug/pic24fj256ga702/mcc_generated_files/i2c2.o \
  build/default/debug/pic24fj256ga702/mcc_generated_files/interrupt_manager.o \
  build/default/debug/pic24fj256ga702/mcc_generated_files/mcc.o \
  build/default/debug/pic24fj256ga702/mcc_generated_files/pin_manager.o \
  build/default/debug/pic24fj256ga702/mcc_generated_files/system.o \
  build/default/debug/pic24fj256ga702/mcc_generated_files/tmr1.o \
  build/default/debug/pic24fj256ga702/mcc_generated_files/tmr2.o \
  build/default/debug/pic24fj256ga702/mcc_generated_files/tmr3.o \
  build/default/debug/pic24fj256ga702/mcc_generated_files/traps.o \
  build/default/debug/pic24fj256ga702/mcc_generated_files/uart1.o \
  build/default/debug/pic24fj256ga702/mcc_generated_files/uart2.o \
  build/default/debug/pic24fj256ga702/mcc_generated_files/adc1.o \
  build/default/debug/pic24fj256ga702/mcc_generated_files/memory/flash.o \
  build/default/debug/pic24fj256ga702/mcc_generated_files/i2c2Controller.o \
  build/default/debug/pic24fj256ga702/wombatasm.o \
  build/default/debug/pic24fj256ga702/pinDigitalHwSpecific.o \
  build/default/debug/pic24fj256ga702/updatePulse.o \
  build/default/debug/timingResource.o \
  build/default/debug/quadEnc.o \
  build/default/debug/analogInput.o \
  build/default/debug/pulseTimer.o \
  build/default/debug/debounce.o \
  build/default/debug/protectedOutput.o \
  build/default/debug/watchdog.o \
  build/default/debug/TM1637.o \
  build/default/debug/ws2812.o \
  build/default/debug/touch.o \
  build/default/debug/uartHw.o \
  build/default/debug/servo.o \
  build/default/debug/pwm.o \
  build/default/debug/outputScale.o \
  build/default/debug/resistanceInput.o \
  build/default/debug/uartSw.o \
  build/default/debug/throughputConsumer.o \
  build/default/debug/matrixKeypad.o \
  build/default/debug/inputProcess.o \
  build/default/debug/pinInputProcessor.o \
  build/default/debug/pulseOnChange.o \
  build/default/debug/hfServo.o \
  build/default/debug/ultrasonicDistance.o \
  build/default/debug/liquidCrystal.o \
  build/default/debug/HSClock.o \
  build/default/debug/HSCounter.o \
  build/default/debug/PS2Keyboard.o \
  build/default/debug/i2cController.o \
  build/default/debug/vga.o \
  build/default/debug/main.o \
  build/default/debug/protocol.o \
  build/default/debug/asciiConversion.o \
  build/default/debug/pinRegisters.o \
  build/default/debug/queue.o \
  --fill=0x555555 \
  --local-stack \
  --defsym=__MPLAB_BUILD=1 \
  --defsym=__MPLAB_DEBUG=1 \
  --defsym=__DEBUG=1 \
  -Tp24FJ256GA702_app.gld.07 \
  --stack=16 \
  --check-sections \
  --data-init \
  --pack-data \
  --handles \
  --isr \
  --no-gc-sections \
  --fill-upper=0 \
  --stackguard=16 \
  --no-ivt \
  --no-force-link \
  --smart-io \
  -Map=dist/default/debug/SerialWombat18A_18B.X.debug.map \
  --report-mem \
  --memorysummary \
  dist/default/debug/memoryfile.xml \
  -start-group \
  --library=lega-pic30-elf \
  --library=m-elf \
  --library=lega-c-elf \
  -end-group \


Optional library libpPIC24Fxxx.a not found
Archive member included because of file (symbol)

c:/program files/microchip/xc16/v1.70/bin/bin/../../lib\liblega-pic30-elf.a(crt0_extended24.o)
                              (__resetPRI)
c:/program files/microchip/xc16/v1.70/bin/bin/../../lib\liblega-pic30-elf.a(data_init_24.o)
                              c:/program files/microchip/xc16/v1.70/bin/bin/../../lib\liblega-pic30-elf.a(crt0_extended24.o) (__data_init_da)
c:/program files/microchip/xc16/v1.70/bin/bin/../../lib\liblega-pic30-elf.a(crt_start_mode_normalda.Leo)
                              (__crt_start_mode_normal)
c:/program files/microchip/xc16/v1.70/bin/bin/../../lib\liblega-pic30-elf.a(delay32da.Leo)
                              build/default/debug/throughputConsumer.o (___delay32)
c:/program files/microchip/xc16/v1.70/bin/bin/../../lib\libm-elf.a(divsi3.daeo)
                              build/default/debug/pic24fj256ga702/mcc_generated_files/adc1.o (___divsi3)
c:/program files/microchip/xc16/v1.70/bin/bin/../../lib\libm-elf.a(udivsi3.daeo)
                              build/default/debug/pic24fj256ga702/mcc_generated_files/adc1.o (___udivsi3)
c:/program files/microchip/xc16/v1.70/bin/bin/../../lib\libm-elf.a(divmoddi3.daeo)
                              build/default/debug/throughputConsumer.o (___udivdi3)
c:/program files/microchip/xc16/v1.70/bin/bin/../../lib\libm-elf.a(muldi3.daeo)
                              build/default/debug/throughputConsumer.o (___muldi3)
c:/program files/microchip/xc16/v1.70/bin/bin/../../lib\libm-elf.a(umuldi3.daeo)
                              c:/program files/microchip/xc16/v1.70/bin/bin/../../lib\libm-elf.a(muldi3.daeo) (___umuldi3)
c:/program files/microchip/xc16/v1.70/bin/bin/../../lib\liblega-c-elf.a(memcpy.DA_eo)
                              build/default/debug/protocol.o (_memcpy)
/n Could not use block at address 130040 and of size 8 to locate section .text because this will lead to having executable code at the last word of program memory./n

Selected CodeGuard Options:
  FSEC:BWRP:OFF
  FSEC:BSS:DISABLED
  FSEC:BSEN:ON
  FSEC:GWRP:OFF
  FSEC:GSS:DISABLED
  FSEC:CWRP:OFF
  FSEC:CSS:DISABLED
  FSEC:AIVTDIS:ON

CodeGuard FLASH Memory:
  boot    0x4100 to 0x47fe
  secure  (none)
  general 0x4800 to 0x29ffe

CodeGuard RAM Memory:
  general 0x800 to 0x47ff
  secure  (none)
  boot    (none)


xc16-ld 1.70 (B)

Default Code Model: Small
Default Data Model: Large
Default Scalar Model: Small

"program" Memory  [Origin = 0x4100, Length = 0x1bb00]

section                    address   length (PC units)   length (bytes) (dec)
-------                    -------   -----------------   --------------------
.text                       0x4800               0xec6          0x1629  (5673)
.text                       0x56c6              0x9614          0xe11e  (57630)
.NVM_flash                  0xecda               0x168           0x21c  (540)
.text                       0xee42               0xffc          0x17fa  (6138)
.init.delay32               0xfe3e                0x1c            0x2a  (42)
.text                       0xfe5a                0x16            0x21  (33)
.text                       0xfe70                 0x4             0x6  (6)
pic24fj256ga702/wombatasm.s.scn1   0x1f800                 0x2             0x3  (3)
.const                     0x1f802               0x272           0x3ab  (939)
.dinit                     0x1fa74               0x184           0x246  (582)
.text                      0x1fbf8                 0x6             0x9  (9)

                 Total "program" memory used (bytes):        0x117ab  (71595) 42%


"userSpace" Memory  [Origin = 0x20000, Length = 0xa000]

section                    address   length (PC units)   length (bytes) (dec)
-------                    -------   -----------------   --------------------
FILLED                     0x27000               0x802           0xc03  (3075)

                 Total "userSpace" memory used (bytes):          0xc03  (3075) 5%


"data" Memory  [Origin = 0x800, Length = 0x4000]

section                    address      alignment gaps    total length  (dec)
-------                    -------      --------------    -------------------
reserve_data_0x800           0x800                0x1c            0x1c  (28)
reserve_data_0x81c           0x81c                 0x2             0x2  (2)
reserve_data_0x81e           0x81e                 0x2             0x2  (2)
reserve_data_0x820           0x820                 0x2             0x2  (2)
reserve_data_0x822           0x822                 0x2             0x2  (2)
reserve_data_0x824           0x824                 0x4             0x4  (4)
.nbss                        0x828                   0             0x2  (2)
reserve_data_0x82a           0x82a                0x26            0x26  (38)
.nbss                        0x850                   0            0x8a  (138)
.ndata                       0x8da                   0             0x8  (8)
.nbss                        0x8e2                   0             0x6  (6)
.ndata                       0x8e8                   0            0x10  (16)
.nbss                        0x8f8                   0             0x4  (4)
.ndata                       0x8fc                   0             0x4  (4)
.nbss                        0x900                   0             0x4  (4)
.ndata                       0x904                   0             0x4  (4)
.nbss                        0x908                   0             0x4  (4)
.nbss                        0x90c                   0             0x2  (2)
.ndata                       0x90e                   0             0x2  (2)
.nbss                        0x910                   0            0x22  (34)
.ndata                       0x932                   0             0x2  (2)
.bss                         0x934                   0          0x2c32  (11314)
.data                       0x3566                   0            0x18  (24)
.bss                        0x357e                   0            0x42  (66)
.data                       0x35c0                   0             0x4  (4)
.bss                        0x35c4                   0             0x6  (6)

                 Total "data" memory used (bytes):         0x2dca  (11722) 71%


Dynamic Memory Usage

region                     address                      maximum length  (dec)
------                     -------                      ---------------------
heap                             0                                   0  (0)
stack                       0x35ca                              0x1236  (4662)

                 Maximum dynamic memory (bytes):         0x1236  (4662)


External Symbols in Data Memory (by address):

                    0x0828                  _TMR1_InterruptHandler
                    0x0850                  _debug_discarded_bytes
                    0x0854                  _UART2ndInterface
                    0x0855                  _UartRxbufferCounter
                    0x0856                  _UartTxbufferCounter
                    0x0857                  _LineBreaksAndEcho
                    0x0858                  _ResponsePending
                    0x0859                  _ResponseAvailable
                    0x085a                  _TX_ClockStretching
                    0x085b                  _RX_ClockStretching
                    0x085c                  _testSequenceNumber
                    0x085d                  _testSequenceArmed
                    0x085e                  _protocolCapturingPackets
                    0x0860                  _protocolCapturedPackets
                    0x0862                  _crcResultCRCCCITT
                    0x0864                  _Errors
                    0x0866                  _PacketsProcessed
                    0x0894                  _DebugLastPoint
                    0x0895                  _wombatI2CRxDataCount
                    0x0896                  _wombatI2CTxDataCount
                    0x0897                  _nextInterruptAddress
                    0x0898                  _discardI2CData
                    0x089a                  _I2CInterruptCount
                    0x089e                  _i2cHealthMonitorSuspicionSCL
                    0x08a0                  _i2cHealthMonitorSuspicionSDA
                    0x08a2                  _i2c2_periph_state
                    0x08a6                  _RunForeground
                    0x08a8                  _OverflowFrames
                    0x08aa                  _FramesRun
                    0x08ae                  _SystemUtilizationCount
                    0x08b0                  _SystemUtilizationSum
                    0x08b4                  _CurrentPin
                    0x08b6                  _CCT1InterruptCount
                    0x08b8                  _CCT2InterruptCount
                    0x08ba                  _CCT3InterruptCount
                    0x08bc                  _CCT4InterruptCount
                    0x08be                  _OC1InterruptCount
                    0x08c0                  _OC2InterruptCount
                    0x08c2                  _OC3InterruptCount
                    0x08c4                  _vgaEnable
                    0x08c6                  _vgaNextLine
                    0x08c8                  _vgaFrameBuffer
                    0x08ca                  _vgaLineCopy
                    0x08cb                  _vgaDisplayLine
                    0x08cc                  _vgaBufferAddress
                    0x08ce                  _vgaZeroBuffer
                    0x08d0                  _vgaColorBufferAddress
                    0x08d2                  _TMR2_InterruptHandler
                    0x08d4                  _FramesDropped
                    0x08d6                  _System1msCount
                    0x08da                  _ADC1Semaphore
                    0x08db                  _DMA5Semaphore
                    0x08dc                  _SPI1Semaphore
                    0x08dd                  _TMR1Semaphore
                    0x08de                  _TMR3Semaphore
                    0x08df                  _UART1Semaphore
                    0x08e0                  _UART2Semaphore
                    0x08e2                  _lastRXInterruptByte
                    0x08e4                  _TotalRxBytes
                    0x08e8                  _VbgCalibration
                    0x08ea                  _CTMUTrim
                    0x08ec                  _TemperatureCache
                    0x08ee                  _SW_I2CAddress
                    0x08f0                  _lastUserBufferIndex
                    0x08f2                  _lastQueueIndex
                    0x08f4                  _lastI2CInterruptCount
                    0x08f8                  _adc_i
                    0x08fc                  _FrameTimingPin
                    0x08fe                  _SystemUtilizationAverage
                    0x0900                  _incrementingValue
                    0x0902                  _CurrentPinRegister
                    0x0904                  _lfsrSeed
                    0x0908                  _QueueOverflowCounter
                    0x090a                  _QueueUnderflowCounter
                    0x090c                  _TMR3_InterruptHandler
                    0x0910                  _debugQuadEnc
                    0x0912                  _debugAnalog
                    0x0914                  _debugPulseTimer
                    0x0916                  _debugTM1637
                    0x0918                  _debugWS2812
                    0x091a                  _debugTouch
                    0x091c                  _debugOutputScale
                    0x091e                  _debugResistance
                    0x0920                  _debuguartSw
                    0x0922                  _debugMatrixKeypad
                    0x0924                  _debugInputProcess
                    0x0926                  _debugPinInputProcessor
                    0x0928                  _debugPulseOnChange
                    0x092a                  _debugUltrasonicDistance
                    0x092c                  _debugLiquidCrystal
                    0x092e                  _debugHSCounter
                    0x0930                  _debugKeyboard
                    0x0932                  _vgaNextColor
                    0x0934                  _UserBuffer
                    0x2934                  _PinUpdateRegisters
                    0x2ed4                  _OutputArrayA
                    0x2fd4                  _OutputArrayB
                    0x30d4                  _InputArrayA
                    0x31d4                  _InputArrayB
                    0x32d4                  _uart1_obj
                    0x3468                  _timingResources
                    0x34d8                  _Rxbuffer
                    0x34e0                  _Txbuffer
                    0x34e8                  _lastErrorPacket
                    0x34f0                  _PinRegisterCopyBuffer
                    0x3538                  _TimingResourceManagerCopyBuffer
                    0x3566                  _ColorTable
                    0x35a2                  _wombatI2CRxData
                    0x35aa                  _wombatI2CTxData
                    0x35c0                  _FlashKey

External Symbols in Data Memory (by name):

                    0x08da                  _ADC1Semaphore
                    0x08b6                  _CCT1InterruptCount
                    0x08b8                  _CCT2InterruptCount
                    0x08ba                  _CCT3InterruptCount
                    0x08bc                  _CCT4InterruptCount
                    0x08ea                  _CTMUTrim
                    0x3566                  _ColorTable
                    0x08b4                  _CurrentPin
                    0x0902                  _CurrentPinRegister
                    0x08db                  _DMA5Semaphore
                    0x0894                  _DebugLastPoint
                    0x0864                  _Errors
                    0x35c0                  _FlashKey
                    0x08fc                  _FrameTimingPin
                    0x08d4                  _FramesDropped
                    0x08aa                  _FramesRun
                    0x089a                  _I2CInterruptCount
                    0x30d4                  _InputArrayA
                    0x31d4                  _InputArrayB
                    0x0857                  _LineBreaksAndEcho
                    0x08be                  _OC1InterruptCount
                    0x08c0                  _OC2InterruptCount
                    0x08c2                  _OC3InterruptCount
                    0x2ed4                  _OutputArrayA
                    0x2fd4                  _OutputArrayB
                    0x08a8                  _OverflowFrames
                    0x0866                  _PacketsProcessed
                    0x34f0                  _PinRegisterCopyBuffer
                    0x2934                  _PinUpdateRegisters
                    0x0908                  _QueueOverflowCounter
                    0x090a                  _QueueUnderflowCounter
                    0x085b                  _RX_ClockStretching
                    0x0859                  _ResponseAvailable
                    0x0858                  _ResponsePending
                    0x08a6                  _RunForeground
                    0x34d8                  _Rxbuffer
                    0x08dc                  _SPI1Semaphore
                    0x08ee                  _SW_I2CAddress
                    0x08d6                  _System1msCount
                    0x08fe                  _SystemUtilizationAverage
                    0x08ae                  _SystemUtilizationCount
                    0x08b0                  _SystemUtilizationSum
                    0x08dd                  _TMR1Semaphore
                    0x0828                  _TMR1_InterruptHandler
                    0x08d2                  _TMR2_InterruptHandler
                    0x08de                  _TMR3Semaphore
                    0x090c                  _TMR3_InterruptHandler
                    0x085a                  _TX_ClockStretching
                    0x08ec                  _TemperatureCache
                    0x3538                  _TimingResourceManagerCopyBuffer
                    0x08e4                  _TotalRxBytes
                    0x34e0                  _Txbuffer
                    0x08df                  _UART1Semaphore
                    0x08e0                  _UART2Semaphore
                    0x0854                  _UART2ndInterface
                    0x0855                  _UartRxbufferCounter
                    0x0856                  _UartTxbufferCounter
                    0x0934                  _UserBuffer
                    0x08e8                  _VbgCalibration
                    0x08f8                  _adc_i
                    0x0862                  _crcResultCRCCCITT
                    0x0912                  _debugAnalog
                    0x092e                  _debugHSCounter
                    0x0924                  _debugInputProcess
                    0x0930                  _debugKeyboard
                    0x092c                  _debugLiquidCrystal
                    0x0922                  _debugMatrixKeypad
                    0x091c                  _debugOutputScale
                    0x0926                  _debugPinInputProcessor
                    0x0928                  _debugPulseOnChange
                    0x0914                  _debugPulseTimer
                    0x0910                  _debugQuadEnc
                    0x091e                  _debugResistance
                    0x0916                  _debugTM1637
                    0x091a                  _debugTouch
                    0x092a                  _debugUltrasonicDistance
                    0x0918                  _debugWS2812
                    0x0850                  _debug_discarded_bytes
                    0x0920                  _debuguartSw
                    0x0898                  _discardI2CData
                    0x08a2                  _i2c2_periph_state
                    0x089e                  _i2cHealthMonitorSuspicionSCL
                    0x08a0                  _i2cHealthMonitorSuspicionSDA
                    0x0900                  _incrementingValue
                    0x34e8                  _lastErrorPacket
                    0x08f4                  _lastI2CInterruptCount
                    0x08f2                  _lastQueueIndex
                    0x08e2                  _lastRXInterruptByte
                    0x08f0                  _lastUserBufferIndex
                    0x0904                  _lfsrSeed
                    0x0897                  _nextInterruptAddress
                    0x0860                  _protocolCapturedPackets
                    0x085e                  _protocolCapturingPackets
                    0x085d                  _testSequenceArmed
                    0x085c                  _testSequenceNumber
                    0x3468                  _timingResources
                    0x32d4                  _uart1_obj
                    0x08cc                  _vgaBufferAddress
                    0x08d0                  _vgaColorBufferAddress
                    0x08cb                  _vgaDisplayLine
                    0x08c4                  _vgaEnable
                    0x08c8                  _vgaFrameBuffer
                    0x08ca                  _vgaLineCopy
                    0x0932                  _vgaNextColor
                    0x08c6                  _vgaNextLine
                    0x08ce                  _vgaZeroBuffer
                    0x35a2                  _wombatI2CRxData
                    0x0895                  _wombatI2CRxDataCount
                    0x35aa                  _wombatI2CTxData
                    0x0896                  _wombatI2CTxDataCount

External Symbols in Program Memory (by address):

                  0x004800                  __resetPRI
                  0x00483c                  __psv_init
                  0x004852                  __data_init_da
                  0x004852                  __data_init
                  0x00490c                  __DMA0Interrupt
                  0x004928                  __MI2C1Interrupt
                  0x004b42                  __SI2C2Interrupt
                  0x004d9a                  __T1Interrupt
                  0x004d9e                  __T2Interrupt
                  0x004dc8                  __OscillatorFail
                  0x004de6                  __StackError
                  0x004e0c                  __AddressError
                  0x004e2a                  __MathError
                  0x004e48                  __NVMError
                  0x004e66                  __U1TXInterrupt
                  0x004ecc                  __U1RXInterrupt
                  0x004f28                  __U1ErrInterrupt
                  0x004f32                  __U2TXInterrupt
                  0x004f98                  __U2RXInterrupt
                  0x004fe6                  __U2ErrInterrupt
                  0x004ff0                  __ADC1Interrupt
                  0x00500c                  __MI2C2Interrupt
                  0x005226                  __CCT1Interrupt
                  0x00524e                  __CCT2Interrupt
                  0x005276                  __CCT3Interrupt
                  0x00531a                  __CCT4Interrupt
                  0x005342                  __OC1Interrupt
                  0x00536c                  __OC2Interrupt
                  0x005394                  __OC3Interrupt
                  0x0053bc                  __DMA5Interrupt
                  0x0053da                  __DefaultInterrupt
                  0x0053e0                  ___divsi3
                  0x0053fe                  ___udivsi3
                  0x00546a                  ___udivmoddi3
                  0x005550                  ___udivdi3
                  0x00555e                  ___umoddi3
                  0x005566                  ___divdi3
                  0x0055c6                  ___moddi3
                  0x005622                  ___muldi3
                  0x005674                  ___umuldi3
                  0x0056b8                  _memcpy
                  0x0056c6                  _uartStartTX
                  0x005714                  _error
                  0x005744                  _ProcessSetPin
                  0x005956                  _crcAppSpace
                  0x005a04                  _ProcessRxbuffer
                  0x006cf2                  _ProcessRx
                  0x006dcc                  _processCapturedCommands
                  0x006e52                  _timingResourceDefault
                  0x006edc                  _timingResourceManagerInit
                  0x006eee                  _timingResourceHighPulseClaim
                  0x006f46                  _timingResourcePWMClaim
                  0x00703a                  _timingResourceRelease
                  0x007092                  _timingResourcesHighPulse
                  0x007192                  _timingResourcePWM
                  0x00788e                  _timingResourceHighPulseBusy
                  0x0078f8                  _timingResourceService
                  0x007904                  _timingResourceInterruptClaim
                  0x007ad0                  _timingResourceInterruptActivate
                  0x007b78                  _timingResourceBusyWait
                  0x007bde                  _timingResourceCounterClaim
                  0x007c9e                  _timingResourceReadCounter
                  0x007d06                  _timingResourceResetCounter
                  0x007d22                  _timingResourceGenericClaim
                  0x007d44                  _lcd_setdata
                  0x007e90                  _lcd_setdata2
                  0x007ff2                  _initLiquidCrystal
                  0x008378                  _updateLiquidCrystal
                  0x008618                  _ws2812_SPI1_Initialize
                  0x008632                  _ws2812ConfigHardware
                  0x008652                  _queue1Bit
                  0x00865e                  _queue0Bit
                  0x00866a                  _QueueRGB
                  0x0088a4                  _SendResetSignal
                  0x0088b2                  _StartDMA
                  0x0088da                  _StopDMA
                  0x0088de                  _initWS2812
                  0x008b4e                  _updateWS2812
                  0x008d6c                  _initPS2Keyboard
                  0x0090a8                  _ps2kb_processAscii
                  0x00915a                  _ps2kb_processCurrentlyPressed
                  0x0091be                  _ps2kb_processMakeCodes
                  0x009202                  _ps2kb_processData
                  0x00929c                  _updatePS2Keyboard
                  0x00939a                  _outputScaleInit
                  0x0093cc                  _outputScaleProcess
                  0x00968e                  _outputScaleResetTimeout
                  0x009694                  _outputScaleCommProcess
                  0x0099bc                  _tm1637Start
                  0x0099c4                  _tm1637Stop
                  0x0099e2                  _tm1637ClockByte
                  0x009a40                  _tm1637_hwinit
                  0x009a4c                  _tm1637SendInitialAddress
                  0x009a6e                  _tm1637SendDisplayControlCommand
                  0x009a76                  _initTM1637
                  0x009cce                  _tm1637UpdateRender
                  0x009e5a                  _updateTM1637
                  0x009fc4                  _initMatrixKeypad
                  0x00a37a                  _updateMatrixKeypad
                  0x00a520                  _SetPPSOutput
                  0x00a632                  _CurrentPinBitmap
                  0x00a646                  _ConfigurePinAnalog
                  0x00a698                  _PinIsAnalogCapable
                  0x00a6a8                  _CurrentPinPort
                  0x00a6ba                  _ReadPin
                  0x00a6ea                  _PinOutput
                  0x00a722                  _PinInput
                  0x00a754                  _CurrentPinRead
                  0x00a758                  _pinIsPPSCapable
                  0x00a770                  _SetPin
                  0x00a85e                  _CurrentPinInput
                  0x00a862                  _CurrentPinAnalog
                  0x00a88c                  _SetPinQuick
                  0x00a88e                  _SetCurrentPin
                  0x00a894                  _PinLow
                  0x00a898                  _PinHigh
                  0x00a89c                  _SetPinPullUp
                  0x00a8e6                  _SetPinPullDown
                  0x00a930                  _SetPinOpenDrain
                  0x00a97a                  _PinPullUp
                  0x00a98e                  _PinNoPullUp
                  0x00a992                  _PinPullDown
                  0x00a9a6                  _PinNoPullDown
                  0x00a9aa                  _PinOD
                  0x00a9ae                  _PinNoOD
                  0x00a9b2                  _CurrentPinHigh
                  0x00a9b8                  _InitializePinLow
                  0x00aa1a                  _CurrentPinLow
                  0x00aa20                  _CurrentPinPullUp
                  0x00aa24                  _CurrentPinNoPullUp
                  0x00aa2a                  _CurrentPinPullDown
                  0x00aa2e                  _CurrentPinNoPullDown
                  0x00aa34                  _updatePulseOutput
                  0x00ac18                  _updateBitStreamOutput
                  0x00acf8                  _initializeBitStreamOutput
                  0x00ad42                  _removeBitStreamOutput
                  0x00ada0                  _PulseInGetOldestDMABit
                  0x00ae04                  _PulseInDiscardUntilLow
                  0x00ae72                  _PulseInSkipDMABits
                  0x00aed4                  _PulseInGetOldestDMASample
                  0x00af2a                  _initQuadEnc
                  0x00b260                  _updateQuadEnc
                  0x00b3ec                  _initUARTSw
                  0x00b634                  _updateUARTSwTx
                  0x00b756                  _updateUARTSwRx
                  0x00b878                  _updateUARTSw
                  0x00b890                  _DMA_Initialize
                  0x00b90a                  _DMA__Channel1_Tasks
                  0x00b91a                  _DMA__Channel2_Tasks
                  0x00b92a                  _DMA__Channel3_Tasks
                  0x00b93a                  _DMA__Channel4_Tasks
                  0x00b94a                  _DMA__Channel5_Tasks
                  0x00b958                  _DMA_ChannelEnable
                  0x00b98a                  _DMA_ChannelDisable
                  0x00b9bc                  _DMA_TransferCountSet
                  0x00b9ee                  _DMA_TransferCountGet
                  0x00ba20                  _DMA_SoftwareTriggerEnable
                  0x00ba52                  _DMA_SourceAddressSet
                  0x00ba84                  _DMA_DestinationAddressSet
                  0x00bab6                  _DMA_IsSoftwareRequestPending
                  0x00bb00                  _DMA_IsBufferedWriteComplete
                  0x00bb3e                  _DMA_IsHighAddressLimitFlagSet
                  0x00bb88                  _DMA_IsLowAddressLimitFlagSet
                  0x00bbd2                  _DMA_IsOperationDone
                  0x00bc1c                  _DMA_IsOverrunFlagSet
                  0x00bc66                  _DMA_IsOperationHalfComplete
                  0x00bcf4                  _vga_SPI1_Initialize
                  0x00bd0e                  _VGAStartDMA
                  0x00bd24                  _VGAStopDMA
                  0x00bd28                  _initVGA
                  0x00c036                  _updateVGA
                  0x00c038                  _VGA_dma_interrupt
                  0x00c0d0                  _inputProcessInit
                  0x00c0f4                  _inputProcessProcess
                  0x00c2e8                  _inputProcessCommProcess
                  0x00c4c6                  _CRC_Initialize
                  0x00c4f2                  _CRC_SeedSet
                  0x00c568                  _CRC_CalculateBufferStart
                  0x00c58c                  _CRC_CalculateProgramStart
                  0x00c5ba                  _CRC_Task
                  0x00c792                  _CRC_CalculationIsDone
                  0x00c7a2                  _CRC_CalculationResultRawGet
                  0x00c7d6                  _CRC_CalculationResultReverseGet
                  0x00c814                  _CRC_CalculationResultXORGet
                  0x00c852                  _CRC_CalculationResultGet
                  0x00c8b4                  _ADC1_ResetConditions
                  0x00c8c4                  _ADC1_Initialize
                  0x00c974                  _GetADCConversion
                  0x00c9d0                  _GetAddressPinVoltage_mV
                  0x00ca82                  _GetCurrentPinReistanceOhmsSetup
                  0x00cade                  _GetCurrentPinReistanceOhmsRead
                  0x00cb0e                  _GetTemperature_degC100ths
                  0x00cbea                  _GetSourceVoltage_mV
                  0x00cbf6                  _GetSourceVoltageADC
                  0x00cbfa                  _GetVBgCountsVsVRefPin
                  0x00cc42                  _initUARTHw
                  0x00cf84                  _updateUARTHw
                  0x00cfae                  _touchCallback
                  0x00cfb2                  _initTouch
                  0x00d116                  _touchProcessDigital
                  0x00d1a8                  _updateTouch
                  0x00d316                  _initPulseOnChange
                  0x00d4aa                  _updatePulseOnChange
                  0x00d65a                  _initPulseTimer
                  0x00d7c0                  _updatePulseTimer
                  0x00d958                  _reset
                  0x00d95a                  _ProcessPins
                  0x00db4c                  _main
                  0x00dc0a                  _pinRegisterSizeCheck
                  0x00dc0c                  _SetBuffer
                  0x00dc1c                  _wrandom
                  0x00dc58                  _GetBuffer
                  0x00de44                  _SetMode
                  0x00de54                  _GetMode
                  0x00de6c                  _UART1_Initialize
                  0x00deae                  _UART1_Read
                  0x00deee                  _UART1_ReadBuffer
                  0x00df22                  _UART1_Write
                  0x00df6a                  _UART1_WriteBuffer
                  0x00df9a                  _UART1_TransferStatusGet
                  0x00dfbe                  _UART1_Peek
                  0x00dfe2                  _UART1_PeekSafe
                  0x00e04c                  _UART1_ReceiveBufferSizeGet
                  0x00e074                  _UART1_TransmitBufferSizeGet
                  0x00e09a                  _UART1_ReceiveBufferIsEmpty
                  0x00e0a8                  _UART1_TransmitBufferIsFull
                  0x00e0b6                  _UART1_StatusGet
                  0x00e0ba                  _UART1_Enable
                  0x00e0c0                  _UART1_Disable
                  0x00e0ca                  _UART2_Initialize
                  0x00e0f4                  _UART2_Read
                  0x00e138                  _UART2_ReadBuffer
                  0x00e16c                  _UART2_Write
                  0x00e1b4                  _UART2_WriteBuffer
                  0x00e1e4                  _UART2_TransferStatusGet
                  0x00e208                  _UART2_Peek
                  0x00e22c                  _UART2_PeekSafe
                  0x00e296                  _UART2_ReceiveBufferSizeGet
                  0x00e2bc                  _UART2_TransmitBufferSizeGet
                  0x00e2e2                  _UART2_ReceiveBufferIsEmpty
                  0x00e2f0                  _UART2_TransmitBufferIsFull
                  0x00e2fe                  _UART2_StatusGet
                  0x00e302                  _UART2_Enable
                  0x00e308                  _UART2_Disable
                  0x00e338                  _QueueByteInitialize
                  0x00e35c                  _QueueByteShiftInitialize
                  0x00e392                  _QueueGetBytesFilledInQueue
                  0x00e3ba                  _QueueGetBytesFreeInQueue
                  0x00e3ee                  _QueueAddByte
                  0x00e46e                  _QueueReadByte
                  0x00e4ca                  _QueuePeekByte
                  0x00e50a                  _QueueCopy
                  0x00e544                  _orCount
                  0x00e54a                  _or128
                  0x00e64c                  _andCount
                  0x00e652                  _and128
                  0x00e754                  _initServoHwSimple
                  0x00e772                  _initServoHw
                  0x00e836                  _updateServoHw
                  0x00e93e                  _initHSCounter
                  0x00ea6e                  _updateHSCounter
                  0x00eb1c                  _initUltrasonicDistance
                  0x00ec14                  _updateUltrasonicDistance
                  0x00ecdc                  _FLASH_Unlock
                  0x00ece6                  _FLASH_Lock
                  0x00ecf4                  _FLASH_SendNvmKey
                  0x00ed12                  _FLASH_ReadWord24
                  0x00ed20                  _FLASH_ReadWord16
                  0x00ed2c                  _FLASH_ErasePage
                  0x00ed50                  _FLASH_WriteDoubleWord24
                  0x00ed88                  _FLASH_WriteDoubleWord16
                  0x00edc2                  _FLASH_WriteRow24
                  0x00edfa                  _FLASH_WriteRow16
                  0x00ee32                  _FLASH_GetErasePageOffset
                  0x00ee38                  _FLASH_GetErasePageAddress
                  0x00ee42                  _updatePWM
                  0x00ee64                  _initPWMSimple
                  0x00eea2                  _initPWM
                  0x00ef94                  _updateResistanceInput
                  0x00f000                  _initResistanceInputSimple
                  0x00f030                  _initResistanceInput
                  0x00f0dc                  _initHSClock
                  0x00f210                  _updateHSClock
                  0x00f212                  _initAnalogInput
                  0x00f2fe                  _updateAnalogInput
                  0x00f32c                  _initAnalogSimple
                  0x00f33e                  _initDebounce
                  0x00f3ea                  _updateDebounce
                  0x00f460                  _initHfServo
                  0x00f540                  _updateHfServo
                  0x00f582                  _ascii_to_val
                  0x00f5bc                  _uint16ToAscii5
                  0x00f610                  _uint16ToAscii5NoHWMath
                  0x00f668                  _uint16ToAsciiHex4
                  0x00f68a                  _I2C2_Initialize
                  0x00f6ba                  _I2C2_PeriphAddressMaskSet
                  0x00f6be                  _I2C2_PeriphAddressSet
                  0x00f6d6                  _I2C2_TransmitProcess
                  0x00f6f2                  _I2C2_ReceiveProcess
                  0x00f726                  _i2cHealthMonitor
                  0x00f780                  _initProtectedOutput
                  0x00f7e0                  _updateProtectedOutput
                  0x00f856                  _initWatchdog
                  0x00f8de                  _updateWatchdog
                  0x00f914                  _I2C1_Initialize
                  0x00f930                  _I2C1_ErrorCountGet
                  0x00f934                  _I2C1_MasterTRBInsert
                  0x00f974                  _I2C1_MasterRead
                  0x00f992                  _I2C1_MasterWrite
                  0x00f9ac                  _I2C1_MasterReadTRBBuild
                  0x00f9b8                  _I2C1_MasterWriteTRBBuild
                  0x00f9c0                  _I2C1_MasterQueueIsEmpty
                  0x00f9c6                  _I2C1_MasterQueueIsFull
                  0x00f9cc                  _I2C2_Controller_Initialize
                  0x00f9e8                  _I2C2_ErrorCountGet
                  0x00f9ec                  _I2C2_ControllerTRBInsert
                  0x00fa2c                  _I2C2_ControllerRead
                  0x00fa4a                  _I2C2_ControllerWrite
                  0x00fa64                  _I2C2_ControllerReadTRBBuild
                  0x00fa70                  _I2C2_ControllerWriteTRBBuild
                  0x00fa78                  _I2C2_ControllerQueueIsEmpty
                  0x00fa7e                  _I2C2_ControllerQueueIsFull
                  0x00fa84                  _initThroughputConsumer
                  0x00fb0a                  _updateThroughputConsumer
                  0x00fb2c                  _SYSTEM_Initialize
                  0x00fbd8                  _TMR2_Initialize
                  0x00fc04                  _TMR2_Period16BitSet
                  0x00fc0c                  _TMR2_Period16BitGet
                  0x00fc10                  _TMR2_Counter16BitSet
                  0x00fc18                  _TMR2_Counter16BitGet
                  0x00fc1c                  _TMR2_SetInterruptHandler
                  0x00fc24                  _TMR2_Start
                  0x00fc2e                  _TMR2_Stop
                  0x00fc34                  _TMR2_GetElapsedThenClear
                  0x00fc40                  _TMR2_SoftwareCounterGet
                  0x00fc46                  _TMR2_SoftwareCounterClear
                  0x00fc4c                  _TMR1_Initialize
                  0x00fc5c                  _TMR1_Tasks_16BitOperation
                  0x00fc6e                  _TMR1_Period16BitSet
                  0x00fc76                  _TMR1_Period16BitGet
                  0x00fc7a                  _TMR1_Counter16BitSet
                  0x00fc82                  _TMR1_Counter16BitGet
                  0x00fc86                  _TMR1_Start
                  0x00fc8e                  _TMR1_Stop
                  0x00fc92                  _TMR1_GetElapsedThenClear
                  0x00fc9e                  _TMR1_SoftwareCounterGet
                  0x00fca4                  _TMR1_SoftwareCounterClear
                  0x00fcaa                  _TMR1_ResetConditions
                  0x00fcb4                  _initPinInputProcessor
                  0x00fce8                  _updatePinInputProcessor
                  0x00fd1a                  _TMR3_Initialize
                  0x00fd28                  _TMR3_Tasks_16BitOperation
                  0x00fd3a                  _TMR3_Period16BitSet
                  0x00fd42                  _TMR3_Period16BitGet
                  0x00fd46                  _TMR3_Counter16BitSet
                  0x00fd4e                  _TMR3_Counter16BitGet
                  0x00fd52                  _TMR3_Start
                  0x00fd5a                  _TMR3_Stop
                  0x00fd5e                  _TMR3_GetElapsedThenClear
                  0x00fd6a                  _TMR3_SoftwareCounterGet
                  0x00fd70                  _TMR3_SoftwareCounterClear
                  0x00fd76                  _TMR3_ResetConditions
                  0x00fd7e                  _CLOCK_Initialize
                  0x00fdc6                  _PIN_MANAGER_Initialize
                  0x00fe0e                  _initi2cController
                  0x00fe3c                  _updatei2cController
                  0x00fe3e                  ___delay32
                  0x00fe5a                  _INTERRUPT_Initialize
                  0x00fe68                  _CVR_Initialize
                  0x00fe70                  _OSCILLATOR_Initialize
                  0x01f802                  _KBSCSet2
                  0x01f902                  _seven_seg_table
                  0x01f982                  _pinPort
                  0x01f996                  _pinBitmap
                  0x01f9be                  _pinPPSInputMap
                  0x01f9d2                  _WombatPinToADCChannel
                  0x01f9fc                  _outputSamplePeriodMask
                  0x01fa1e                  _inputProcessSamplePeriodMask
                  0x01fa40                  _baudDivisor
                  0x01fa52                  _swBaudDivisor
                  0x02af00                  __FSEC.sec

External Symbols in Program Memory (by name):

                  0x00c8c4                  _ADC1_Initialize
                  0x00c8b4                  _ADC1_ResetConditions
                  0x00fd7e                  _CLOCK_Initialize
                  0x00c568                  _CRC_CalculateBufferStart
                  0x00c58c                  _CRC_CalculateProgramStart
                  0x00c792                  _CRC_CalculationIsDone
                  0x00c852                  _CRC_CalculationResultGet
                  0x00c7a2                  _CRC_CalculationResultRawGet
                  0x00c7d6                  _CRC_CalculationResultReverseGet
                  0x00c814                  _CRC_CalculationResultXORGet
                  0x00c4c6                  _CRC_Initialize
                  0x00c4f2                  _CRC_SeedSet
                  0x00c5ba                  _CRC_Task
                  0x00fe68                  _CVR_Initialize
                  0x00a646                  _ConfigurePinAnalog
                  0x00a862                  _CurrentPinAnalog
                  0x00a632                  _CurrentPinBitmap
                  0x00a9b2                  _CurrentPinHigh
                  0x00a85e                  _CurrentPinInput
                  0x00aa1a                  _CurrentPinLow
                  0x00aa2e                  _CurrentPinNoPullDown
                  0x00aa24                  _CurrentPinNoPullUp
                  0x00a6a8                  _CurrentPinPort
                  0x00aa2a                  _CurrentPinPullDown
                  0x00aa20                  _CurrentPinPullUp
                  0x00a754                  _CurrentPinRead
                  0x00b98a                  _DMA_ChannelDisable
                  0x00b958                  _DMA_ChannelEnable
                  0x00ba84                  _DMA_DestinationAddressSet
                  0x00b890                  _DMA_Initialize
                  0x00bb00                  _DMA_IsBufferedWriteComplete
                  0x00bb3e                  _DMA_IsHighAddressLimitFlagSet
                  0x00bb88                  _DMA_IsLowAddressLimitFlagSet
                  0x00bbd2                  _DMA_IsOperationDone
                  0x00bc66                  _DMA_IsOperationHalfComplete
                  0x00bc1c                  _DMA_IsOverrunFlagSet
                  0x00bab6                  _DMA_IsSoftwareRequestPending
                  0x00ba20                  _DMA_SoftwareTriggerEnable
                  0x00ba52                  _DMA_SourceAddressSet
                  0x00b9ee                  _DMA_TransferCountGet
                  0x00b9bc                  _DMA_TransferCountSet
                  0x00b90a                  _DMA__Channel1_Tasks
                  0x00b91a                  _DMA__Channel2_Tasks
                  0x00b92a                  _DMA__Channel3_Tasks
                  0x00b93a                  _DMA__Channel4_Tasks
                  0x00b94a                  _DMA__Channel5_Tasks
                  0x00ed2c                  _FLASH_ErasePage
                  0x00ee38                  _FLASH_GetErasePageAddress
                  0x00ee32                  _FLASH_GetErasePageOffset
                  0x00ece6                  _FLASH_Lock
                  0x00ed20                  _FLASH_ReadWord16
                  0x00ed12                  _FLASH_ReadWord24
                  0x00ecf4                  _FLASH_SendNvmKey
                  0x00ecdc                  _FLASH_Unlock
                  0x00ed88                  _FLASH_WriteDoubleWord16
                  0x00ed50                  _FLASH_WriteDoubleWord24
                  0x00edfa                  _FLASH_WriteRow16
                  0x00edc2                  _FLASH_WriteRow24
                  0x00c974                  _GetADCConversion
                  0x00c9d0                  _GetAddressPinVoltage_mV
                  0x00dc58                  _GetBuffer
                  0x00cade                  _GetCurrentPinReistanceOhmsRead
                  0x00ca82                  _GetCurrentPinReistanceOhmsSetup
                  0x00de54                  _GetMode
                  0x00cbf6                  _GetSourceVoltageADC
                  0x00cbea                  _GetSourceVoltage_mV
                  0x00cb0e                  _GetTemperature_degC100ths
                  0x00cbfa                  _GetVBgCountsVsVRefPin
                  0x00f930                  _I2C1_ErrorCountGet
                  0x00f914                  _I2C1_Initialize
                  0x00f9c0                  _I2C1_MasterQueueIsEmpty
                  0x00f9c6                  _I2C1_MasterQueueIsFull
                  0x00f974                  _I2C1_MasterRead
                  0x00f9ac                  _I2C1_MasterReadTRBBuild
                  0x00f934                  _I2C1_MasterTRBInsert
                  0x00f992                  _I2C1_MasterWrite
                  0x00f9b8                  _I2C1_MasterWriteTRBBuild
                  0x00fa78                  _I2C2_ControllerQueueIsEmpty
                  0x00fa7e                  _I2C2_ControllerQueueIsFull
                  0x00fa2c                  _I2C2_ControllerRead
                  0x00fa64                  _I2C2_ControllerReadTRBBuild
                  0x00f9ec                  _I2C2_ControllerTRBInsert
                  0x00fa4a                  _I2C2_ControllerWrite
                  0x00fa70                  _I2C2_ControllerWriteTRBBuild
                  0x00f9cc                  _I2C2_Controller_Initialize
                  0x00f9e8                  _I2C2_ErrorCountGet
                  0x00f68a                  _I2C2_Initialize
                  0x00f6ba                  _I2C2_PeriphAddressMaskSet
                  0x00f6be                  _I2C2_PeriphAddressSet
                  0x00f6f2                  _I2C2_ReceiveProcess
                  0x00f6d6                  _I2C2_TransmitProcess
                  0x00fe5a                  _INTERRUPT_Initialize
                  0x00a9b8                  _InitializePinLow
                  0x01f802                  _KBSCSet2
                  0x00fe70                  _OSCILLATOR_Initialize
                  0x00fdc6                  _PIN_MANAGER_Initialize
                  0x00a898                  _PinHigh
                  0x00a722                  _PinInput
                  0x00a698                  _PinIsAnalogCapable
                  0x00a894                  _PinLow
                  0x00a9ae                  _PinNoOD
                  0x00a9a6                  _PinNoPullDown
                  0x00a98e                  _PinNoPullUp
                  0x00a9aa                  _PinOD
                  0x00a6ea                  _PinOutput
                  0x00a992                  _PinPullDown
                  0x00a97a                  _PinPullUp
                  0x00d95a                  _ProcessPins
                  0x006cf2                  _ProcessRx
                  0x005a04                  _ProcessRxbuffer
                  0x005744                  _ProcessSetPin
                  0x00ae04                  _PulseInDiscardUntilLow
                  0x00ada0                  _PulseInGetOldestDMABit
                  0x00aed4                  _PulseInGetOldestDMASample
                  0x00ae72                  _PulseInSkipDMABits
                  0x00e3ee                  _QueueAddByte
                  0x00e338                  _QueueByteInitialize
                  0x00e35c                  _QueueByteShiftInitialize
                  0x00e50a                  _QueueCopy
                  0x00e392                  _QueueGetBytesFilledInQueue
                  0x00e3ba                  _QueueGetBytesFreeInQueue
                  0x00e4ca                  _QueuePeekByte
                  0x00866a                  _QueueRGB
                  0x00e46e                  _QueueReadByte
                  0x00a6ba                  _ReadPin
                  0x00fb2c                  _SYSTEM_Initialize
                  0x0088a4                  _SendResetSignal
                  0x00dc0c                  _SetBuffer
                  0x00a88e                  _SetCurrentPin
                  0x00de44                  _SetMode
                  0x00a520                  _SetPPSOutput
                  0x00a770                  _SetPin
                  0x00a930                  _SetPinOpenDrain
                  0x00a8e6                  _SetPinPullDown
                  0x00a89c                  _SetPinPullUp
                  0x00a88c                  _SetPinQuick
                  0x0088b2                  _StartDMA
                  0x0088da                  _StopDMA
                  0x00fc82                  _TMR1_Counter16BitGet
                  0x00fc7a                  _TMR1_Counter16BitSet
                  0x00fc92                  _TMR1_GetElapsedThenClear
                  0x00fc4c                  _TMR1_Initialize
                  0x00fc76                  _TMR1_Period16BitGet
                  0x00fc6e                  _TMR1_Period16BitSet
                  0x00fcaa                  _TMR1_ResetConditions
                  0x00fca4                  _TMR1_SoftwareCounterClear
                  0x00fc9e                  _TMR1_SoftwareCounterGet
                  0x00fc86                  _TMR1_Start
                  0x00fc8e                  _TMR1_Stop
                  0x00fc5c                  _TMR1_Tasks_16BitOperation
                  0x00fc18                  _TMR2_Counter16BitGet
                  0x00fc10                  _TMR2_Counter16BitSet
                  0x00fc34                  _TMR2_GetElapsedThenClear
                  0x00fbd8                  _TMR2_Initialize
                  0x00fc0c                  _TMR2_Period16BitGet
                  0x00fc04                  _TMR2_Period16BitSet
                  0x00fc1c                  _TMR2_SetInterruptHandler
                  0x00fc46                  _TMR2_SoftwareCounterClear
                  0x00fc40                  _TMR2_SoftwareCounterGet
                  0x00fc24                  _TMR2_Start
                  0x00fc2e                  _TMR2_Stop
                  0x00fd4e                  _TMR3_Counter16BitGet
                  0x00fd46                  _TMR3_Counter16BitSet
                  0x00fd5e                  _TMR3_GetElapsedThenClear
                  0x00fd1a                  _TMR3_Initialize
                  0x00fd42                  _TMR3_Period16BitGet
                  0x00fd3a                  _TMR3_Period16BitSet
                  0x00fd76                  _TMR3_ResetConditions
                  0x00fd70                  _TMR3_SoftwareCounterClear
                  0x00fd6a                  _TMR3_SoftwareCounterGet
                  0x00fd52                  _TMR3_Start
                  0x00fd5a                  _TMR3_Stop
                  0x00fd28                  _TMR3_Tasks_16BitOperation
                  0x00e0c0                  _UART1_Disable
                  0x00e0ba                  _UART1_Enable
                  0x00de6c                  _UART1_Initialize
                  0x00dfbe                  _UART1_Peek
                  0x00dfe2                  _UART1_PeekSafe
                  0x00deae                  _UART1_Read
                  0x00deee                  _UART1_ReadBuffer
                  0x00e09a                  _UART1_ReceiveBufferIsEmpty
                  0x00e04c                  _UART1_ReceiveBufferSizeGet
                  0x00e0b6                  _UART1_StatusGet
                  0x00df9a                  _UART1_TransferStatusGet
                  0x00e0a8                  _UART1_TransmitBufferIsFull
                  0x00e074                  _UART1_TransmitBufferSizeGet
                  0x00df22                  _UART1_Write
                  0x00df6a                  _UART1_WriteBuffer
                  0x00e308                  _UART2_Disable
                  0x00e302                  _UART2_Enable
                  0x00e0ca                  _UART2_Initialize
                  0x00e208                  _UART2_Peek
                  0x00e22c                  _UART2_PeekSafe
                  0x00e0f4                  _UART2_Read
                  0x00e138                  _UART2_ReadBuffer
                  0x00e2e2                  _UART2_ReceiveBufferIsEmpty
                  0x00e296                  _UART2_ReceiveBufferSizeGet
                  0x00e2fe                  _UART2_StatusGet
                  0x00e1e4                  _UART2_TransferStatusGet
                  0x00e2f0                  _UART2_TransmitBufferIsFull
                  0x00e2bc                  _UART2_TransmitBufferSizeGet
                  0x00e16c                  _UART2_Write
                  0x00e1b4                  _UART2_WriteBuffer
                  0x00bd0e                  _VGAStartDMA
                  0x00bd24                  _VGAStopDMA
                  0x00c038                  _VGA_dma_interrupt
                  0x01f9d2                  _WombatPinToADCChannel
                  0x004ff0                  __ADC1Interrupt
                  0x004e0c                  __AddressError
                  0x005226                  __CCT1Interrupt
                  0x00524e                  __CCT2Interrupt
                  0x005276                  __CCT3Interrupt
                  0x00531a                  __CCT4Interrupt
                  0x00490c                  __DMA0Interrupt
                  0x0053bc                  __DMA5Interrupt
                  0x0053da                  __DefaultInterrupt
                  0x02af00                  __FSEC.sec
                  0x004928                  __MI2C1Interrupt
                  0x00500c                  __MI2C2Interrupt
                  0x004e2a                  __MathError
                  0x004e48                  __NVMError
                  0x005342                  __OC1Interrupt
                  0x00536c                  __OC2Interrupt
                  0x005394                  __OC3Interrupt
                  0x004dc8                  __OscillatorFail
                  0x004b42                  __SI2C2Interrupt
                  0x004de6                  __StackError
                  0x004d9a                  __T1Interrupt
                  0x004d9e                  __T2Interrupt
                  0x004f28                  __U1ErrInterrupt
                  0x004ecc                  __U1RXInterrupt
                  0x004e66                  __U1TXInterrupt
                  0x004fe6                  __U2ErrInterrupt
                  0x004f98                  __U2RXInterrupt
                  0x004f32                  __U2TXInterrupt
                  0x00fe3e                  ___delay32
                  0x005566                  ___divdi3
                  0x0053e0                  ___divsi3
                  0x0055c6                  ___moddi3
                  0x005622                  ___muldi3
                  0x005550                  ___udivdi3
                  0x00546a                  ___udivmoddi3
                  0x0053fe                  ___udivsi3
                  0x00555e                  ___umoddi3
                  0x005674                  ___umuldi3
                  0x004852                  __data_init
                  0x004852                  __data_init_da
                  0x00483c                  __psv_init
                  0x004800                  __resetPRI
                  0x00e652                  _and128
                  0x00e64c                  _andCount
                  0x00f582                  _ascii_to_val
                  0x01fa40                  _baudDivisor
                  0x005956                  _crcAppSpace
                  0x005714                  _error
                  0x00f726                  _i2cHealthMonitor
                  0x00f212                  _initAnalogInput
                  0x00f32c                  _initAnalogSimple
                  0x00f33e                  _initDebounce
                  0x00f0dc                  _initHSClock
                  0x00e93e                  _initHSCounter
                  0x00f460                  _initHfServo
                  0x007ff2                  _initLiquidCrystal
                  0x009fc4                  _initMatrixKeypad
                  0x008d6c                  _initPS2Keyboard
                  0x00eea2                  _initPWM
                  0x00ee64                  _initPWMSimple
                  0x00fcb4                  _initPinInputProcessor
                  0x00f780                  _initProtectedOutput
                  0x00d316                  _initPulseOnChange
                  0x00d65a                  _initPulseTimer
                  0x00af2a                  _initQuadEnc
                  0x00f030                  _initResistanceInput
                  0x00f000                  _initResistanceInputSimple
                  0x00e772                  _initServoHw
                  0x00e754                  _initServoHwSimple
                  0x009a76                  _initTM1637
                  0x00fa84                  _initThroughputConsumer
                  0x00cfb2                  _initTouch
                  0x00cc42                  _initUARTHw
                  0x00b3ec                  _initUARTSw
                  0x00eb1c                  _initUltrasonicDistance
                  0x00bd28                  _initVGA
                  0x0088de                  _initWS2812
                  0x00f856                  _initWatchdog
                  0x00fe0e                  _initi2cController
                  0x00acf8                  _initializeBitStreamOutput
                  0x00c2e8                  _inputProcessCommProcess
                  0x00c0d0                  _inputProcessInit
                  0x00c0f4                  _inputProcessProcess
                  0x01fa1e                  _inputProcessSamplePeriodMask
                  0x007d44                  _lcd_setdata
                  0x007e90                  _lcd_setdata2
                  0x00db4c                  _main
                  0x0056b8                  _memcpy
                  0x00e54a                  _or128
                  0x00e544                  _orCount
                  0x01f9fc                  _outputSamplePeriodMask
                  0x009694                  _outputScaleCommProcess
                  0x00939a                  _outputScaleInit
                  0x0093cc                  _outputScaleProcess
                  0x00968e                  _outputScaleResetTimeout
                  0x01f996                  _pinBitmap
                  0x00a758                  _pinIsPPSCapable
                  0x01f9be                  _pinPPSInputMap
                  0x01f982                  _pinPort
                  0x00dc0a                  _pinRegisterSizeCheck
                  0x006dcc                  _processCapturedCommands
                  0x0090a8                  _ps2kb_processAscii
                  0x00915a                  _ps2kb_processCurrentlyPressed
                  0x009202                  _ps2kb_processData
                  0x0091be                  _ps2kb_processMakeCodes
                  0x00865e                  _queue0Bit
                  0x008652                  _queue1Bit
                  0x00ad42                  _removeBitStreamOutput
                  0x00d958                  _reset
                  0x01f902                  _seven_seg_table
                  0x01fa52                  _swBaudDivisor
                  0x007b78                  _timingResourceBusyWait
                  0x007bde                  _timingResourceCounterClaim
                  0x006e52                  _timingResourceDefault
                  0x007d22                  _timingResourceGenericClaim
                  0x00788e                  _timingResourceHighPulseBusy
                  0x006eee                  _timingResourceHighPulseClaim
                  0x007ad0                  _timingResourceInterruptActivate
                  0x007904                  _timingResourceInterruptClaim
                  0x006edc                  _timingResourceManagerInit
                  0x007192                  _timingResourcePWM
                  0x006f46                  _timingResourcePWMClaim
                  0x007c9e                  _timingResourceReadCounter
                  0x00703a                  _timingResourceRelease
                  0x007d06                  _timingResourceResetCounter
                  0x0078f8                  _timingResourceService
                  0x007092                  _timingResourcesHighPulse
                  0x0099e2                  _tm1637ClockByte
                  0x009a6e                  _tm1637SendDisplayControlCommand
                  0x009a4c                  _tm1637SendInitialAddress
                  0x0099bc                  _tm1637Start
                  0x0099c4                  _tm1637Stop
                  0x009cce                  _tm1637UpdateRender
                  0x009a40                  _tm1637_hwinit
                  0x00cfae                  _touchCallback
                  0x00d116                  _touchProcessDigital
                  0x0056c6                  _uartStartTX
                  0x00f5bc                  _uint16ToAscii5
                  0x00f610                  _uint16ToAscii5NoHWMath
                  0x00f668                  _uint16ToAsciiHex4
                  0x00f2fe                  _updateAnalogInput
                  0x00ac18                  _updateBitStreamOutput
                  0x00f3ea                  _updateDebounce
                  0x00f210                  _updateHSClock
                  0x00ea6e                  _updateHSCounter
                  0x00f540                  _updateHfServo
                  0x008378                  _updateLiquidCrystal
                  0x00a37a                  _updateMatrixKeypad
                  0x00929c                  _updatePS2Keyboard
                  0x00ee42                  _updatePWM
                  0x00fce8                  _updatePinInputProcessor
                  0x00f7e0                  _updateProtectedOutput
                  0x00d4aa                  _updatePulseOnChange
                  0x00aa34                  _updatePulseOutput
                  0x00d7c0                  _updatePulseTimer
                  0x00b260                  _updateQuadEnc
                  0x00ef94                  _updateResistanceInput
                  0x00e836                  _updateServoHw
                  0x009e5a                  _updateTM1637
                  0x00fb0a                  _updateThroughputConsumer
                  0x00d1a8                  _updateTouch
                  0x00cf84                  _updateUARTHw
                  0x00b878                  _updateUARTSw
                  0x00b756                  _updateUARTSwRx
                  0x00b634                  _updateUARTSwTx
                  0x00ec14                  _updateUltrasonicDistance
                  0x00c036                  _updateVGA
                  0x008b4e                  _updateWS2812
                  0x00f8de                  _updateWatchdog
                  0x00fe3c                  _updatei2cController
                  0x00bcf4                  _vga_SPI1_Initialize
                  0x00dc1c                  _wrandom
                  0x008632                  _ws2812ConfigHardware
                  0x008618                  _ws2812_SPI1_Initialize

Memory Configuration

Name             Origin             Length             Attributes
data             0x000800           0x004000           a !xr
reset            0x004000           0x000004  
ivtjon           0x004004           0x0000fc  
program          0x004100           0x01bb00           xr
userSpace        0x020000           0x00a000           xr
FSEC             0x02af00           0x000002  
FBSLIM           0x02af10           0x000002  
FSIGN            0x02af14           0x000002  
FOSCSEL          0x02af18           0x000002  
FOSC             0x02af1c           0x000002  
FWDT             0x02af20           0x000002  
FPOR             0x02af24           0x000002  
FICD             0x02af28           0x000002  
FDEVOPT1         0x02af2c           0x000002  
*default*        0x000000           0xffffffff  

Linker script and memory map


reserve_data_0x800
                    0x0800         0x1c
                    0x081c                  . = 0x1c
 *fill*             0x0800         0x1c00

reserve_data_0x81c
                    0x081c          0x2
                    0x081e                  . = 0x2
 *fill*             0x081c          0x200

reserve_data_0x81e
                    0x081e          0x2
                    0x0820                  . = 0x2
 *fill*             0x081e          0x200

reserve_data_0x820
                    0x0820          0x2
                    0x0822                  . = 0x2
 *fill*             0x0820          0x200

reserve_data_0x822
                    0x0822          0x2
                    0x0824                  . = 0x2
 *fill*             0x0822          0x200

reserve_data_0x824
                    0x0824          0x4
                    0x0828                  . = 0x4
 *fill*             0x0824          0x400

reserve_data_0x82a
                    0x082a         0x26
                    0x0850                  . = 0x26
 *fill*             0x082a         0x2600
LOAD build/default/debug/pic24fj256ga702/mcc_generated_files/clock.o
LOAD build/default/debug/pic24fj256ga702/mcc_generated_files/crc.o
LOAD build/default/debug/pic24fj256ga702/mcc_generated_files/cvr.o
LOAD build/default/debug/pic24fj256ga702/mcc_generated_files/dma.o
LOAD build/default/debug/pic24fj256ga702/mcc_generated_files/i2c1.o
LOAD build/default/debug/pic24fj256ga702/mcc_generated_files/i2c2.o
LOAD build/default/debug/pic24fj256ga702/mcc_generated_files/interrupt_manager.o
LOAD build/default/debug/pic24fj256ga702/mcc_generated_files/mcc.o
LOAD build/default/debug/pic24fj256ga702/mcc_generated_files/pin_manager.o
LOAD build/default/debug/pic24fj256ga702/mcc_generated_files/system.o
LOAD build/default/debug/pic24fj256ga702/mcc_generated_files/tmr1.o
LOAD build/default/debug/pic24fj256ga702/mcc_generated_files/tmr2.o
LOAD build/default/debug/pic24fj256ga702/mcc_generated_files/tmr3.o
LOAD build/default/debug/pic24fj256ga702/mcc_generated_files/traps.o
LOAD build/default/debug/pic24fj256ga702/mcc_generated_files/uart1.o
LOAD build/default/debug/pic24fj256ga702/mcc_generated_files/uart2.o
LOAD build/default/debug/pic24fj256ga702/mcc_generated_files/adc1.o
LOAD build/default/debug/pic24fj256ga702/mcc_generated_files/memory/flash.o
LOAD build/default/debug/pic24fj256ga702/mcc_generated_files/i2c2Controller.o
LOAD build/default/debug/pic24fj256ga702/wombatasm.o
LOAD build/default/debug/pic24fj256ga702/pinDigitalHwSpecific.o
LOAD build/default/debug/pic24fj256ga702/updatePulse.o
LOAD build/default/debug/timingResource.o
LOAD build/default/debug/quadEnc.o
LOAD build/default/debug/analogInput.o
LOAD build/default/debug/pulseTimer.o
LOAD build/default/debug/debounce.o
LOAD build/default/debug/protectedOutput.o
LOAD build/default/debug/watchdog.o
LOAD build/default/debug/TM1637.o
LOAD build/default/debug/ws2812.o
LOAD build/default/debug/touch.o
LOAD build/default/debug/uartHw.o
LOAD build/default/debug/servo.o
LOAD build/default/debug/pwm.o
LOAD build/default/debug/outputScale.o
LOAD build/default/debug/resistanceInput.o
LOAD build/default/debug/uartSw.o
LOAD build/default/debug/throughputConsumer.o
LOAD build/default/debug/matrixKeypad.o
LOAD build/default/debug/inputProcess.o
LOAD build/default/debug/pinInputProcessor.o
LOAD build/default/debug/pulseOnChange.o
LOAD build/default/debug/hfServo.o
LOAD build/default/debug/ultrasonicDistance.o
LOAD build/default/debug/liquidCrystal.o
LOAD build/default/debug/HSClock.o
LOAD build/default/debug/HSCounter.o
LOAD build/default/debug/PS2Keyboard.o
LOAD build/default/debug/i2cController.o
LOAD build/default/debug/vga.o
LOAD build/default/debug/main.o
LOAD build/default/debug/protocol.o
LOAD build/default/debug/asciiConversion.o
LOAD build/default/debug/pinRegisters.o
LOAD build/default/debug/queue.o
                    0x0001                  __MPLAB_BUILD = 0x1
                    0x0001                  __MPLAB_DEBUG = 0x1
                    0x0001                  __DEBUG = 0x1
LOAD pPIC24Fxxx
LOAD c:/program files/microchip/xc16/v1.70/bin/bin/../../lib\libfx-elf.a
                    0x2af00                  __FSEC = 0x2af00
                    0x2af10                  __FBSLIM = 0x2af10
                    0x2af14                  __FSIGN = 0x2af14
                    0x2af18                  __FOSCSEL = 0x2af18
                    0x2af1c                  __FOSC = 0x2af1c
                    0x2af20                  __FWDT = 0x2af20
                    0x2af24                  __FPOR = 0x2af24
                    0x2af28                  __FICD = 0x2af28
                    0x2af2c                  __FDEVOPT1 = 0x2af2c
                    0x4100                  __CODE_BASE = 0x4100
                    0x2ae00                  __CODE_LENGTH = 0x2ae00
                    0x4004                  __IVT_BASE = 0x4004
                    0x0800                  __DATA_BASE = 0x800
                    0x4000                  __DATA_LENGTH = 0x4000

.reset            0x004000          0x4
                  0x004000          0x2 SHORT 0x4800 ABSOLUTE (__reset)
                  0x004001          0x2 SHORT 0x4
                  0x004002          0x2 SHORT 0x0 ((ABSOLUTE (__reset) >> 0x10) & 0x7f)
                  0x004003          0x2 SHORT 0x0

.text             0x004800        0xec6
 *(.init)
 .init            0x004800         0x4c c:/program files/microchip/xc16/v1.70/bin/bin/../../lib\liblega-pic30-elf.a(crt0_extended24.o)
                  0x004800                  __resetPRI
                  0x004800                  __reset
                  0x00483c                  __psv_init
 .init            0x00484c         0xb8 c:/program files/microchip/xc16/v1.70/bin/bin/../../lib\liblega-pic30-elf.a(data_init_24.o)
                  0x004852                  __data_init
                  0x004852                  __data_init_da
 *(.user_init)
 *(.handle)
 .handle          0x004904          0x8 jump_table
 *(.isr*)
 .isr.text        0x00490c         0x1c build/default/debug/pic24fj256ga702/mcc_generated_files/dma.o
                  0x00490c                  __DMA0Interrupt
 .isr.text        0x004928        0x21a build/default/debug/pic24fj256ga702/mcc_generated_files/i2c1.o
                  0x004928                  __MI2C1Interrupt
 .isr.text        0x004b42        0x258 build/default/debug/pic24fj256ga702/mcc_generated_files/i2c2.o
                  0x004b42                  __SI2C2Interrupt
 .isr.text        0x004d9a          0x4 build/default/debug/pic24fj256ga702/mcc_generated_files/tmr1.o
                  0x004d9a                  __T1Interrupt
 .isr.text        0x004d9e         0x2a build/default/debug/pic24fj256ga702/mcc_generated_files/tmr2.o
                  0x004d9e                  __T2Interrupt
 .isr.text        0x004dc8         0x9e build/default/debug/pic24fj256ga702/mcc_generated_files/traps.o
                  0x004dc8                  __OscillatorFail
                  0x004de6                  __StackError
                  0x004e0c                  __AddressError
                  0x004e2a                  __MathError
                  0x004e48                  __NVMError
 .isr.text        0x004e66         0xcc build/default/debug/pic24fj256ga702/mcc_generated_files/uart1.o
                  0x004e66                  __U1TXInterrupt
                  0x004ecc                  __U1RXInterrupt
                  0x004f28                  __U1ErrInterrupt
 .isr.text        0x004f32         0xbe build/default/debug/pic24fj256ga702/mcc_generated_files/uart2.o
                  0x004f32                  __U2TXInterrupt
                  0x004f98                  __U2RXInterrupt
                  0x004fe6                  __U2ErrInterrupt
 .isr.text        0x004ff0         0x1c build/default/debug/pic24fj256ga702/mcc_generated_files/adc1.o
                  0x004ff0                  __ADC1Interrupt
 .isr.text        0x00500c        0x21a build/default/debug/pic24fj256ga702/mcc_generated_files/i2c2Controller.o
                  0x00500c                  __MI2C2Interrupt
 .isr.text        0x005226        0x196 build/default/debug/timingResource.o
                  0x005226                  __CCT1Interrupt
                  0x00524e                  __CCT2Interrupt
                  0x005276                  __CCT3Interrupt
                  0x00531a                  __CCT4Interrupt
                  0x005342                  __OC1Interrupt
                  0x00536c                  __OC2Interrupt
                  0x005394                  __OC3Interrupt
 .isr.text        0x0053bc         0x1e build/default/debug/vga.o
                  0x0053bc                  __DMA5Interrupt
 .isr             0x0053da          0x4 default_isr
                  0x0053da                  __DefaultInterrupt
 *(.libc)
 *(.libm)
 *(.libdsp)
 *(.lib*)
 .libpic30_crt_start_mode
                  0x0053de          0x2 c:/program files/microchip/xc16/v1.70/bin/bin/../../lib\liblega-pic30-elf.a(crt_start_mode_normalda.Leo)
                  0x0053de                  __crt_start_mode
                  0x0053de                  __crt_start_mode_normal
 .libm.divsi3     0x0053e0         0x1e c:/program files/microchip/xc16/v1.70/bin/bin/../../lib\libm-elf.a(divsi3.daeo)
                  0x0053e0                  ___divsi3
 .libm.udivsi3    0x0053fe         0x20 c:/program files/microchip/xc16/v1.70/bin/bin/../../lib\libm-elf.a(udivsi3.daeo)
                  0x0053fe                  ___udivsi3
 .libm.__PplusBdi
                  0x00541e         0x26 c:/program files/microchip/xc16/v1.70/bin/bin/../../lib\libm-elf.a(divmoddi3.daeo)
 .libm.__PminusBdi
                  0x005444         0x26 c:/program files/microchip/xc16/v1.70/bin/bin/../../lib\libm-elf.a(divmoddi3.daeo)
 .libm.__udivmoddi3
                  0x00546a         0xe6 c:/program files/microchip/xc16/v1.70/bin/bin/../../lib\libm-elf.a(divmoddi3.daeo)
                  0x00546a                  ___udivmoddi3
 .libm.__udivdi3
                  0x005550          0xe c:/program files/microchip/xc16/v1.70/bin/bin/../../lib\libm-elf.a(divmoddi3.daeo)
                  0x005550                  ___udivdi3
 .libm.__umoddi3
                  0x00555e          0x8 c:/program files/microchip/xc16/v1.70/bin/bin/../../lib\libm-elf.a(divmoddi3.daeo)
                  0x00555e                  ___umoddi3
 .libm.__divdi3
                  0x005566         0x60 c:/program files/microchip/xc16/v1.70/bin/bin/../../lib\libm-elf.a(divmoddi3.daeo)
                  0x005566                  ___divdi3
 .libm.__moddi3
                  0x0055c6         0x5c c:/program files/microchip/xc16/v1.70/bin/bin/../../lib\libm-elf.a(divmoddi3.daeo)
                  0x0055c6                  ___moddi3
 .libm.__muldi3
                  0x005622         0x52 c:/program files/microchip/xc16/v1.70/bin/bin/../../lib\libm-elf.a(muldi3.daeo)
                  0x005622                  ___muldi3
 .libm.umuldi3    0x005674         0x44 c:/program files/microchip/xc16/v1.70/bin/bin/../../lib\libm-elf.a(umuldi3.daeo)
                  0x005674                  ___umuldi3
 .libc.memcpy     0x0056b8          0xe c:/program files/microchip/xc16/v1.70/bin/bin/../../lib\liblega-c-elf.a(memcpy.DA_eo)
                  0x0056b8                  _memcpy

usercode
 *(usercode)

__FSEC            0x02af00          0x2
 *(__FSEC.sec*)
 __FSEC.sec       0x02af00          0x2 /CW/_FSEC
                  0x02af00                  __FSEC.sec

__FBSLIM
 *(__FBSLIM.sec*)

__FSIGN
 *(__FSIGN.sec*)

__FOSCSEL
 *(__FOSCSEL.sec*)

__FOSC
 *(__FOSC.sec*)

__FWDT
 *(__FWDT.sec*)

__FPOR
 *(__FPOR.sec*)

__FICD
 *(__FICD.sec*)

__FDEVOPT1
 *(__FDEVOPT1.sec*)

.comment
 *(.comment)

.debug_info       0x000000      0x4504d
 *(.debug_info)
 .debug_info      0x000000        0x547 build/default/debug/pic24fj256ga702/mcc_generated_files/clock.o
 .debug_info      0x000547        0xda9 build/default/debug/pic24fj256ga702/mcc_generated_files/crc.o
 .debug_info      0x0012f0        0x1ef build/default/debug/pic24fj256ga702/mcc_generated_files/cvr.o
 .debug_info      0x0014df       0x2433 build/default/debug/pic24fj256ga702/mcc_generated_files/dma.o
 .debug_info      0x003912       0x110c build/default/debug/pic24fj256ga702/mcc_generated_files/i2c1.o
 .debug_info      0x004a1e        0xfdf build/default/debug/pic24fj256ga702/mcc_generated_files/i2c2.o
 .debug_info      0x0059fd        0x36a build/default/debug/pic24fj256ga702/mcc_generated_files/interrupt_manager.o
 .debug_info      0x005d67        0x19f build/default/debug/pic24fj256ga702/mcc_generated_files/mcc.o
 .debug_info      0x005f06        0x4cf build/default/debug/pic24fj256ga702/mcc_generated_files/pin_manager.o
 .debug_info      0x0063d5        0x89f build/default/debug/pic24fj256ga702/mcc_generated_files/system.o
 .debug_info      0x006c74        0x9bb build/default/debug/pic24fj256ga702/mcc_generated_files/tmr1.o
 .debug_info      0x00762f        0xa2a build/default/debug/pic24fj256ga702/mcc_generated_files/tmr2.o
 .debug_info      0x008059        0x7a2 build/default/debug/pic24fj256ga702/mcc_generated_files/tmr3.o
 .debug_info      0x0087fb        0x473 build/default/debug/pic24fj256ga702/mcc_generated_files/traps.o
 .debug_info      0x008c6e       0x104b build/default/debug/pic24fj256ga702/mcc_generated_files/uart1.o
 .debug_info      0x009cb9        0xf0f build/default/debug/pic24fj256ga702/mcc_generated_files/uart2.o
 .debug_info      0x00abc8       0x1509 build/default/debug/pic24fj256ga702/mcc_generated_files/adc1.o
 .debug_info      0x00c0d1         0xdd build/default/debug/pic24fj256ga702/mcc_generated_files/memory/flash.o
 .debug_info      0x00c1ae       0x1159 build/default/debug/pic24fj256ga702/mcc_generated_files/i2c2Controller.o
 .debug_info      0x00d307         0xc6 build/default/debug/pic24fj256ga702/wombatasm.o
 .debug_info      0x00d3cd       0x1129 build/default/debug/pic24fj256ga702/pinDigitalHwSpecific.o
 .debug_info      0x00e4f6        0xae1 build/default/debug/pic24fj256ga702/updatePulse.o
 .debug_info      0x00efd7       0x2c04 build/default/debug/timingResource.o
 .debug_info      0x011bdb       0x187d build/default/debug/quadEnc.o
 .debug_info      0x013458       0x1901 build/default/debug/analogInput.o
 .debug_info      0x014d59       0x1b5e build/default/debug/pulseTimer.o
 .debug_info      0x0168b7       0x15d9 build/default/debug/debounce.o
 .debug_info      0x017e90       0x15db build/default/debug/protectedOutput.o
 .debug_info      0x01946b       0x15b1 build/default/debug/watchdog.o
 .debug_info      0x01aa1c       0x1b42 build/default/debug/TM1637.o
 .debug_info      0x01c55e       0x2305 build/default/debug/ws2812.o
 .debug_info      0x01e863       0x25b5 build/default/debug/touch.o
 .debug_info      0x020e18       0x179c build/default/debug/uartHw.o
 .debug_info      0x0225b4       0x1b7a build/default/debug/servo.o
 .debug_info      0x02412e       0x1ab1 build/default/debug/pwm.o
 .debug_info      0x025bdf        0xa54 build/default/debug/outputScale.o
 .debug_info      0x026633       0x1b26 build/default/debug/resistanceInput.o
 .debug_info      0x028159       0x1a18 build/default/debug/uartSw.o
 .debug_info      0x029b71       0x15d4 build/default/debug/throughputConsumer.o
 .debug_info      0x02b145       0x1c3e build/default/debug/matrixKeypad.o
 .debug_info      0x02cd83        0x822 build/default/debug/inputProcess.o
 .debug_info      0x02d5a5       0x12a2 build/default/debug/pinInputProcessor.o
 .debug_info      0x02e847       0x1b33 build/default/debug/pulseOnChange.o
 .debug_info      0x03037a       0x1a9e build/default/debug/hfServo.o
 .debug_info      0x031e18       0x1a0d build/default/debug/ultrasonicDistance.o
 .debug_info      0x033825       0x19a7 build/default/debug/liquidCrystal.o
 .debug_info      0x0351cc       0x1710 build/default/debug/HSClock.o
 .debug_info      0x0368dc       0x1b19 build/default/debug/HSCounter.o
 .debug_info      0x0383f5       0x228d build/default/debug/PS2Keyboard.o
 .debug_info      0x03a682       0x1502 build/default/debug/i2cController.o
 .debug_info      0x03bb84       0x2c00 build/default/debug/vga.o
 .debug_info      0x03e784        0xe67 build/default/debug/main.o
 .debug_info      0x03f5eb       0x3bd1 build/default/debug/protocol.o
 .debug_info      0x0431bc        0x27b build/default/debug/asciiConversion.o
 .debug_info      0x043437        0xdc4 build/default/debug/pinRegisters.o
 .debug_info      0x0441fb        0xe52 build/default/debug/queue.o
 *(.gnu.linkonce.wi.*)

.debug_abbrev     0x000000       0x5891
 *(.debug_abbrev)
 .debug_abbrev    0x000000         0xc5 build/default/debug/pic24fj256ga702/mcc_generated_files/clock.o
 .debug_abbrev    0x0000c5        0x298 build/default/debug/pic24fj256ga702/mcc_generated_files/crc.o
 .debug_abbrev    0x00035d         0x59 build/default/debug/pic24fj256ga702/mcc_generated_files/cvr.o
 .debug_abbrev    0x0003b6        0x185 build/default/debug/pic24fj256ga702/mcc_generated_files/dma.o
 .debug_abbrev    0x00053b        0x2a6 build/default/debug/pic24fj256ga702/mcc_generated_files/i2c1.o
 .debug_abbrev    0x0007e1        0x241 build/default/debug/pic24fj256ga702/mcc_generated_files/i2c2.o
 .debug_abbrev    0x000a22         0xb4 build/default/debug/pic24fj256ga702/mcc_generated_files/interrupt_manager.o
 .debug_abbrev    0x000ad6         0x34 build/default/debug/pic24fj256ga702/mcc_generated_files/mcc.o
 .debug_abbrev    0x000b0a         0x59 build/default/debug/pic24fj256ga702/mcc_generated_files/pin_manager.o
 .debug_abbrev    0x000b63         0xf0 build/default/debug/pic24fj256ga702/mcc_generated_files/system.o
 .debug_abbrev    0x000c53        0x1a2 build/default/debug/pic24fj256ga702/mcc_generated_files/tmr1.o
 .debug_abbrev    0x000df5        0x1ec build/default/debug/pic24fj256ga702/mcc_generated_files/tmr2.o
 .debug_abbrev    0x000fe1        0x18f build/default/debug/pic24fj256ga702/mcc_generated_files/tmr3.o
 .debug_abbrev    0x001170        0x126 build/default/debug/pic24fj256ga702/mcc_generated_files/traps.o
 .debug_abbrev    0x001296        0x291 build/default/debug/pic24fj256ga702/mcc_generated_files/uart1.o
 .debug_abbrev    0x001527        0x280 build/default/debug/pic24fj256ga702/mcc_generated_files/uart2.o
 .debug_abbrev    0x0017a7        0x2a1 build/default/debug/pic24fj256ga702/mcc_generated_files/adc1.o
 .debug_abbrev    0x001a48         0x14 build/default/debug/pic24fj256ga702/mcc_generated_files/memory/flash.o
 .debug_abbrev    0x001a5c        0x295 build/default/debug/pic24fj256ga702/mcc_generated_files/i2c2Controller.o
 .debug_abbrev    0x001cf1         0x14 build/default/debug/pic24fj256ga702/wombatasm.o
 .debug_abbrev    0x001d05        0x276 build/default/debug/pic24fj256ga702/pinDigitalHwSpecific.o
 .debug_abbrev    0x001f7b        0x1d8 build/default/debug/pic24fj256ga702/updatePulse.o
 .debug_abbrev    0x002153        0x2a3 build/default/debug/timingResource.o
 .debug_abbrev    0x0023f6        0x18c build/default/debug/quadEnc.o
 .debug_abbrev    0x002582        0x15d build/default/debug/analogInput.o
 .debug_abbrev    0x0026df        0x17b build/default/debug/pulseTimer.o
 .debug_abbrev    0x00285a         0xf4 build/default/debug/debounce.o
 .debug_abbrev    0x00294e        0x105 build/default/debug/protectedOutput.o
 .debug_abbrev    0x002a53         0xdf build/default/debug/watchdog.o
 .debug_abbrev    0x002b32        0x209 build/default/debug/TM1637.o
 .debug_abbrev    0x002d3b        0x2a1 build/default/debug/ws2812.o
 .debug_abbrev    0x002fdc        0x1cc build/default/debug/touch.o
 .debug_abbrev    0x0031a8        0x172 build/default/debug/uartHw.o
 .debug_abbrev    0x00331a        0x160 build/default/debug/servo.o
 .debug_abbrev    0x00347a        0x13d build/default/debug/pwm.o
 .debug_abbrev    0x0035b7        0x22f build/default/debug/outputScale.o
 .debug_abbrev    0x0037e6        0x192 build/default/debug/resistanceInput.o
 .debug_abbrev    0x003978        0x16b build/default/debug/uartSw.o
 .debug_abbrev    0x003ae3        0x109 build/default/debug/throughputConsumer.o
 .debug_abbrev    0x003bec        0x1ed build/default/debug/matrixKeypad.o
 .debug_abbrev    0x003dd9        0x167 build/default/debug/inputProcess.o
 .debug_abbrev    0x003f40        0x140 build/default/debug/pinInputProcessor.o
 .debug_abbrev    0x004080        0x185 build/default/debug/pulseOnChange.o
 .debug_abbrev    0x004205        0x12f build/default/debug/hfServo.o
 .debug_abbrev    0x004334        0x124 build/default/debug/ultrasonicDistance.o
 .debug_abbrev    0x004458        0x1dc build/default/debug/liquidCrystal.o
 .debug_abbrev    0x004634        0x179 build/default/debug/HSClock.o
 .debug_abbrev    0x0047ad        0x151 build/default/debug/HSCounter.o
 .debug_abbrev    0x0048fe        0x25f build/default/debug/PS2Keyboard.o
 .debug_abbrev    0x004b5d         0xdf build/default/debug/i2cController.o
 .debug_abbrev    0x004c3c        0x2ca build/default/debug/vga.o
 .debug_abbrev    0x004f06        0x21e build/default/debug/main.o
 .debug_abbrev    0x005124        0x351 build/default/debug/protocol.o
 .debug_abbrev    0x005475         0xae build/default/debug/asciiConversion.o
 .debug_abbrev    0x005523        0x1a0 build/default/debug/pinRegisters.o
 .debug_abbrev    0x0056c3        0x1ce build/default/debug/queue.o

.debug_line       0x000000       0x793c
 *(.debug_line)
 .debug_line      0x000000        0x13e build/default/debug/pic24fj256ga702/mcc_generated_files/clock.o
 .debug_line      0x00013e        0x291 build/default/debug/pic24fj256ga702/mcc_generated_files/crc.o
 .debug_line      0x0003cf        0x128 build/default/debug/pic24fj256ga702/mcc_generated_files/cvr.o
 .debug_line      0x0004f7        0x2f4 build/default/debug/pic24fj256ga702/mcc_generated_files/dma.o
 .debug_line      0x0007eb        0x28c build/default/debug/pic24fj256ga702/mcc_generated_files/i2c1.o
 .debug_line      0x000a77        0x27c build/default/debug/pic24fj256ga702/mcc_generated_files/i2c2.o
 .debug_line      0x000cf3        0x136 build/default/debug/pic24fj256ga702/mcc_generated_files/interrupt_manager.o
 .debug_line      0x000e29         0x57 build/default/debug/pic24fj256ga702/mcc_generated_files/mcc.o
 .debug_line      0x000e80        0x148 build/default/debug/pic24fj256ga702/mcc_generated_files/pin_manager.o
 .debug_line      0x000fc8        0x17b build/default/debug/pic24fj256ga702/mcc_generated_files/system.o
 .debug_line      0x001143        0x15f build/default/debug/pic24fj256ga702/mcc_generated_files/tmr1.o
 .debug_line      0x0012a2        0x17b build/default/debug/pic24fj256ga702/mcc_generated_files/tmr2.o
 .debug_line      0x00141d        0x14b build/default/debug/pic24fj256ga702/mcc_generated_files/tmr3.o
 .debug_line      0x001568        0x15e build/default/debug/pic24fj256ga702/mcc_generated_files/traps.o
 .debug_line      0x0016c6        0x237 build/default/debug/pic24fj256ga702/mcc_generated_files/uart1.o
 .debug_line      0x0018fd        0x22c build/default/debug/pic24fj256ga702/mcc_generated_files/uart2.o
 .debug_line      0x001b29        0x293 build/default/debug/pic24fj256ga702/mcc_generated_files/adc1.o
 .debug_line      0x001dbc        0x122 build/default/debug/pic24fj256ga702/mcc_generated_files/memory/flash.o
 .debug_line      0x001ede        0x2a0 build/default/debug/pic24fj256ga702/mcc_generated_files/i2c2Controller.o
 .debug_line      0x00217e        0x14f build/default/debug/pic24fj256ga702/wombatasm.o
 .debug_line      0x0022cd        0x2d9 build/default/debug/pic24fj256ga702/pinDigitalHwSpecific.o
 .debug_line      0x0025a6        0x2c9 build/default/debug/pic24fj256ga702/updatePulse.o
 .debug_line      0x00286f        0x6c4 build/default/debug/timingResource.o
 .debug_line      0x002f33        0x2c3 build/default/debug/quadEnc.o
 .debug_line      0x0031f6        0x189 build/default/debug/analogInput.o
 .debug_line      0x00337f        0x1f6 build/default/debug/pulseTimer.o
 .debug_line      0x003575        0x132 build/default/debug/debounce.o
 .debug_line      0x0036a7        0x137 build/default/debug/protectedOutput.o
 .debug_line      0x0037de        0x11f build/default/debug/watchdog.o
 .debug_line      0x0038fd        0x2f2 build/default/debug/TM1637.o
 .debug_line      0x003bef        0x467 build/default/debug/ws2812.o
 .debug_line      0x004056        0x28b build/default/debug/touch.o
 .debug_line      0x0042e1        0x27b build/default/debug/uartHw.o
 .debug_line      0x00455c        0x1b0 build/default/debug/servo.o
 .debug_line      0x00470c        0x16d build/default/debug/pwm.o
 .debug_line      0x004879        0x24a build/default/debug/outputScale.o
 .debug_line      0x004ac3        0x20e build/default/debug/resistanceInput.o
 .debug_line      0x004cd1        0x29c build/default/debug/uartSw.o
 .debug_line      0x004f6d        0x125 build/default/debug/throughputConsumer.o
 .debug_line      0x005092        0x2eb build/default/debug/matrixKeypad.o
 .debug_line      0x00537d        0x187 build/default/debug/inputProcess.o
 .debug_line      0x005504        0x113 build/default/debug/pinInputProcessor.o
 .debug_line      0x005617        0x242 build/default/debug/pulseOnChange.o
 .debug_line      0x005859        0x16c build/default/debug/hfServo.o
 .debug_line      0x0059c5        0x187 build/default/debug/ultrasonicDistance.o
 .debug_line      0x005b4c        0x2e0 build/default/debug/liquidCrystal.o
 .debug_line      0x005e2c        0x1aa build/default/debug/HSClock.o
 .debug_line      0x005fd6        0x195 build/default/debug/HSCounter.o
 .debug_line      0x00616b        0x3ad build/default/debug/PS2Keyboard.o
 .debug_line      0x006518        0x10c build/default/debug/i2cController.o
 .debug_line      0x006624        0x303 build/default/debug/vga.o
 .debug_line      0x006927        0x2a6 build/default/debug/main.o
 .debug_line      0x006bcd        0x8b4 build/default/debug/protocol.o
 .debug_line      0x007481         0xd7 build/default/debug/asciiConversion.o
 .debug_line      0x007558        0x23e build/default/debug/pinRegisters.o
 .debug_line      0x007796        0x1a6 build/default/debug/queue.o

.debug_frame      0x000000       0x22bc
 *(.debug_frame)
 .debug_frame     0x000000         0x24 build/default/debug/pic24fj256ga702/mcc_generated_files/clock.o
 .debug_frame     0x000024         0xf4 build/default/debug/pic24fj256ga702/mcc_generated_files/crc.o
 .debug_frame     0x000118         0x24 build/default/debug/pic24fj256ga702/mcc_generated_files/cvr.o
 .debug_frame     0x00013c        0x1e8 build/default/debug/pic24fj256ga702/mcc_generated_files/dma.o
 .debug_frame     0x000324         0xc6 build/default/debug/pic24fj256ga702/mcc_generated_files/i2c1.o
 .debug_frame     0x0003ea         0xa8 build/default/debug/pic24fj256ga702/mcc_generated_files/i2c2.o
 .debug_frame     0x000492         0x24 build/default/debug/pic24fj256ga702/mcc_generated_files/interrupt_manager.o
 .debug_frame     0x0004b6         0x24 build/default/debug/pic24fj256ga702/mcc_generated_files/mcc.o
 .debug_frame     0x0004da         0x24 build/default/debug/pic24fj256ga702/mcc_generated_files/pin_manager.o
 .debug_frame     0x0004fe         0x24 build/default/debug/pic24fj256ga702/mcc_generated_files/system.o
 .debug_frame     0x000522         0xe4 build/default/debug/pic24fj256ga702/mcc_generated_files/tmr1.o
 .debug_frame     0x000606        0x108 build/default/debug/pic24fj256ga702/mcc_generated_files/tmr2.o
 .debug_frame     0x00070e         0xd4 build/default/debug/pic24fj256ga702/mcc_generated_files/tmr3.o
 .debug_frame     0x0007e2        0x128 build/default/debug/pic24fj256ga702/mcc_generated_files/traps.o
 .debug_frame     0x00090a        0x186 build/default/debug/pic24fj256ga702/mcc_generated_files/uart1.o
 .debug_frame     0x000a90        0x186 build/default/debug/pic24fj256ga702/mcc_generated_files/uart2.o
 .debug_frame     0x000c16        0x10e build/default/debug/pic24fj256ga702/mcc_generated_files/adc1.o
 .debug_frame     0x000d24         0xc6 build/default/debug/pic24fj256ga702/mcc_generated_files/i2c2Controller.o
 .debug_frame     0x000dea        0x24c build/default/debug/pic24fj256ga702/pinDigitalHwSpecific.o
 .debug_frame     0x001036         0xf6 build/default/debug/pic24fj256ga702/updatePulse.o
 .debug_frame     0x00112c        0x2e8 build/default/debug/timingResource.o
 .debug_frame     0x001414         0x74 build/default/debug/quadEnc.o
 .debug_frame     0x001488         0x58 build/default/debug/analogInput.o
 .debug_frame     0x0014e0         0x50 build/default/debug/pulseTimer.o
 .debug_frame     0x001530         0x3e build/default/debug/debounce.o
 .debug_frame     0x00156e         0x34 build/default/debug/protectedOutput.o
 .debug_frame     0x0015a2         0x34 build/default/debug/watchdog.o
 .debug_frame     0x0015d6         0xe6 build/default/debug/TM1637.o
 .debug_frame     0x0016bc         0xd0 build/default/debug/ws2812.o
 .debug_frame     0x00178c         0x5e build/default/debug/touch.o
 .debug_frame     0x0017ea         0x5a build/default/debug/uartHw.o
 .debug_frame     0x001844         0x60 build/default/debug/servo.o
 .debug_frame     0x0018a4         0x58 build/default/debug/pwm.o
 .debug_frame     0x0018fc         0x7a build/default/debug/outputScale.o
 .debug_frame     0x001976         0x4e build/default/debug/resistanceInput.o
 .debug_frame     0x0019c4         0xa2 build/default/debug/uartSw.o
 .debug_frame     0x001a66         0x34 build/default/debug/throughputConsumer.o
 .debug_frame     0x001a9a         0x7c build/default/debug/matrixKeypad.o
 .debug_frame     0x001b16         0x70 build/default/debug/inputProcess.o
 .debug_frame     0x001b86         0x3e build/default/debug/pinInputProcessor.o
 .debug_frame     0x001bc4         0x62 build/default/debug/pulseOnChange.o
 .debug_frame     0x001c26         0x3e build/default/debug/hfServo.o
 .debug_frame     0x001c64         0x50 build/default/debug/ultrasonicDistance.o
 .debug_frame     0x001cb4         0xde build/default/debug/liquidCrystal.o
 .debug_frame     0x001d92         0x34 build/default/debug/HSClock.o
 .debug_frame     0x001dc6         0x50 build/default/debug/HSCounter.o
 .debug_frame     0x001e16         0xa8 build/default/debug/PS2Keyboard.o
 .debug_frame     0x001ebe         0x34 build/default/debug/i2cController.o
 .debug_frame     0x001ef2         0xd4 build/default/debug/vga.o
 .debug_frame     0x001fc6         0x60 build/default/debug/main.o
 .debug_frame     0x002026        0x104 build/default/debug/protocol.o
 .debug_frame     0x00212a         0x54 build/default/debug/asciiConversion.o
 .debug_frame     0x00217e         0x7e build/default/debug/pinRegisters.o
 .debug_frame     0x0021fc         0xc0 build/default/debug/queue.o

.debug_str        0x000000       0x1cb2
 *(.debug_str)
 .debug_str       0x000000         0x1d build/default/debug/pic24fj256ga702/mcc_generated_files/clock.o
 .debug_str       0x00001d         0x57 build/default/debug/pic24fj256ga702/mcc_generated_files/crc.o
 .debug_str       0x000074        0x1bd build/default/debug/pic24fj256ga702/mcc_generated_files/dma.o
 .debug_str       0x000231         0x5d build/default/debug/pic24fj256ga702/mcc_generated_files/i2c1.o
 .debug_str       0x00028e        0x1a5 build/default/debug/pic24fj256ga702/mcc_generated_files/i2c2.o
 .debug_str       0x000433          0x9 build/default/debug/pic24fj256ga702/mcc_generated_files/interrupt_manager.o
 .debug_str       0x00043c         0x4f build/default/debug/pic24fj256ga702/mcc_generated_files/system.o
 .debug_str       0x00048b         0x1c build/default/debug/pic24fj256ga702/mcc_generated_files/tmr1.o
 .debug_str       0x0004a7         0x5d build/default/debug/pic24fj256ga702/mcc_generated_files/tmr2.o
 .debug_str       0x000504         0x13 build/default/debug/pic24fj256ga702/mcc_generated_files/tmr3.o
 .debug_str       0x000517         0x18 build/default/debug/pic24fj256ga702/mcc_generated_files/traps.o
 .debug_str       0x00052f         0x62 build/default/debug/pic24fj256ga702/mcc_generated_files/uart1.o
 .debug_str       0x000591         0x37 build/default/debug/pic24fj256ga702/mcc_generated_files/uart2.o
 .debug_str       0x0005c8        0x131 build/default/debug/pic24fj256ga702/mcc_generated_files/adc1.o
 .debug_str       0x0006f9         0x5d build/default/debug/pic24fj256ga702/mcc_generated_files/i2c2Controller.o
 .debug_str       0x000756         0xa2 build/default/debug/pic24fj256ga702/pinDigitalHwSpecific.o
 .debug_str       0x0007f8         0xd8 build/default/debug/pic24fj256ga702/updatePulse.o
 .debug_str       0x0008d0        0x2fa build/default/debug/timingResource.o
 .debug_str       0x000bca         0x52 build/default/debug/quadEnc.o
 .debug_str       0x000c1c         0x51 build/default/debug/analogInput.o
 .debug_str       0x000c6d         0x59 build/default/debug/pulseTimer.o
 .debug_str       0x000cc6         0x2c build/default/debug/debounce.o
 .debug_str       0x000cf2         0x23 build/default/debug/protectedOutput.o
 .debug_str       0x000d15         0x23 build/default/debug/watchdog.o
 .debug_str       0x000d38         0x5f build/default/debug/TM1637.o
 .debug_str       0x000d97         0xf4 build/default/debug/ws2812.o
 .debug_str       0x000e8b        0x102 build/default/debug/touch.o
 .debug_str       0x000f8d         0x9b build/default/debug/uartHw.o
 .debug_str       0x001028         0x4f build/default/debug/servo.o
 .debug_str       0x001077         0x38 build/default/debug/pwm.o
 .debug_str       0x0010af         0x8b build/default/debug/outputScale.o
 .debug_str       0x00113a         0x75 build/default/debug/resistanceInput.o
 .debug_str       0x0011af         0x6b build/default/debug/uartSw.o
 .debug_str       0x00121a         0x40 build/default/debug/throughputConsumer.o
 .debug_str       0x00125a         0x9e build/default/debug/matrixKeypad.o
 .debug_str       0x0012f8         0x58 build/default/debug/inputProcess.o
 .debug_str       0x001350         0x4c build/default/debug/pinInputProcessor.o
 .debug_str       0x00139c         0x4f build/default/debug/pulseOnChange.o
 .debug_str       0x0013eb         0x36 build/default/debug/hfServo.o
 .debug_str       0x001421         0x4f build/default/debug/ultrasonicDistance.o
 .debug_str       0x001470         0x41 build/default/debug/liquidCrystal.o
 .debug_str       0x0014b1         0x56 build/default/debug/HSClock.o
 .debug_str       0x001507         0x4e build/default/debug/HSCounter.o
 .debug_str       0x001555         0x98 build/default/debug/PS2Keyboard.o
 .debug_str       0x0015ed         0x2e build/default/debug/i2cController.o
 .debug_str       0x00161b        0x198 build/default/debug/vga.o
 .debug_str       0x0017b3         0xde build/default/debug/main.o
 .debug_str       0x001891        0x32f build/default/debug/protocol.o
 .debug_str       0x001bc0          0x7 build/default/debug/asciiConversion.o
 .debug_str       0x001bc7         0x8d build/default/debug/pinRegisters.o
 .debug_str       0x001c54         0x5e build/default/debug/queue.o

.debug_loc
 *(.debug_loc)

.debug_macinfo
 *(.debug_macinfo)

.debug_pubnames
                  0x000000       0x2b72
 *(.debug_pubnames)
 .debug_pubnames
                  0x000000         0x27 build/default/debug/pic24fj256ga702/mcc_generated_files/clock.o
 .debug_pubnames
                  0x000027        0x129 build/default/debug/pic24fj256ga702/mcc_generated_files/crc.o
 .debug_pubnames
                  0x000150         0x25 build/default/debug/pic24fj256ga702/mcc_generated_files/cvr.o
 .debug_pubnames
                  0x000175        0x2d5 build/default/debug/pic24fj256ga702/mcc_generated_files/dma.o
 .debug_pubnames
                  0x00044a        0x103 build/default/debug/pic24fj256ga702/mcc_generated_files/i2c1.o
 .debug_pubnames
                  0x00054d        0x1d9 build/default/debug/pic24fj256ga702/mcc_generated_files/i2c2.o
 .debug_pubnames
                  0x000726         0x2b build/default/debug/pic24fj256ga702/mcc_generated_files/interrupt_manager.o
 .debug_pubnames
                  0x000751         0x2c build/default/debug/pic24fj256ga702/mcc_generated_files/mcc.o
 .debug_pubnames
                  0x00077d         0x2d build/default/debug/pic24fj256ga702/mcc_generated_files/pin_manager.o
 .debug_pubnames
                  0x0007aa         0x28 build/default/debug/pic24fj256ga702/mcc_generated_files/system.o
 .debug_pubnames
                  0x0007d2        0x15e build/default/debug/pic24fj256ga702/mcc_generated_files/tmr1.o
 .debug_pubnames
                  0x000930        0x17b build/default/debug/pic24fj256ga702/mcc_generated_files/tmr2.o
 .debug_pubnames
                  0x000aab        0x14d build/default/debug/pic24fj256ga702/mcc_generated_files/tmr3.o
 .debug_pubnames
                  0x000bf8         0x7d build/default/debug/pic24fj256ga702/mcc_generated_files/traps.o
 .debug_pubnames
                  0x000c75        0x1d4 build/default/debug/pic24fj256ga702/mcc_generated_files/uart1.o
 .debug_pubnames
                  0x000e49        0x19d build/default/debug/pic24fj256ga702/mcc_generated_files/uart2.o
 .debug_pubnames
                  0x000fe6        0x171 build/default/debug/pic24fj256ga702/mcc_generated_files/adc1.o
 .debug_pubnames
                  0x001157        0x12a build/default/debug/pic24fj256ga702/mcc_generated_files/i2c2Controller.o
 .debug_pubnames
                  0x001281        0x361 build/default/debug/pic24fj256ga702/pinDigitalHwSpecific.o
 .debug_pubnames
                  0x0015e2         0xe5 build/default/debug/pic24fj256ga702/updatePulse.o
 .debug_pubnames
                  0x0016c7        0x31c build/default/debug/timingResource.o
 .debug_pubnames
                  0x0019e3         0x45 build/default/debug/quadEnc.o
 .debug_pubnames
                  0x001a28         0x61 build/default/debug/analogInput.o
 .debug_pubnames
                  0x001a89         0x4e build/default/debug/pulseTimer.o
 .debug_pubnames
                  0x001ad7         0x36 build/default/debug/debounce.o
 .debug_pubnames
                  0x001b0d         0x44 build/default/debug/protectedOutput.o
 .debug_pubnames
                  0x001b51         0x36 build/default/debug/watchdog.o
 .debug_pubnames
                  0x001b87         0xf3 build/default/debug/TM1637.o
 .debug_pubnames
                  0x001c7a         0xdb build/default/debug/ws2812.o
 .debug_pubnames
                  0x001d55         0x69 build/default/debug/touch.o
 .debug_pubnames
                  0x001dbe         0x42 build/default/debug/uartHw.o
 .debug_pubnames
                  0x001e00         0x4a build/default/debug/servo.o
 .debug_pubnames
                  0x001e4a         0x3e build/default/debug/pwm.o
 .debug_pubnames
                  0x001e88         0xa4 build/default/debug/outputScale.o
 .debug_pubnames
                  0x001f2c         0x76 build/default/debug/resistanceInput.o
 .debug_pubnames
                  0x001fa2         0x7a build/default/debug/uartSw.o
 .debug_pubnames
                  0x00201c         0x4a build/default/debug/throughputConsumer.o
 .debug_pubnames
                  0x002066         0x54 build/default/debug/matrixKeypad.o
 .debug_pubnames
                  0x0020ba         0x92 build/default/debug/inputProcess.o
 .debug_pubnames
                  0x00214c         0x63 build/default/debug/pinInputProcessor.o
 .debug_pubnames
                  0x0021af         0x57 build/default/debug/pulseOnChange.o
 .debug_pubnames
                  0x002206         0x34 build/default/debug/hfServo.o
 .debug_pubnames
                  0x00223a         0x66 build/default/debug/ultrasonicDistance.o
 .debug_pubnames
                  0x0022a0         0x78 build/default/debug/liquidCrystal.o
 .debug_pubnames
                  0x002318         0x34 build/default/debug/HSClock.o
 .debug_pubnames
                  0x00234c         0x4b build/default/debug/HSCounter.o
 .debug_pubnames
                  0x002397         0xc5 build/default/debug/PS2Keyboard.o
 .debug_pubnames
                  0x00245c         0x40 build/default/debug/i2cController.o
 .debug_pubnames
                  0x00249c        0x132 build/default/debug/vga.o
 .debug_pubnames
                  0x0025ce         0xea build/default/debug/main.o
 .debug_pubnames
                  0x0026b8        0x29e build/default/debug/protocol.o
 .debug_pubnames
                  0x002956         0x67 build/default/debug/asciiConversion.o
 .debug_pubnames
                  0x0029bd         0xbc build/default/debug/pinRegisters.o
 .debug_pubnames
                  0x002a79         0xf9 build/default/debug/queue.o

.debug_ranges
 *(.debug_ranges)

.debug_aranges    0x000000        0x540
 *(.debug_aranges)
 .debug_aranges
                  0x000000         0x18 build/default/debug/pic24fj256ga702/mcc_generated_files/clock.o
 .debug_aranges
                  0x000018         0x18 build/default/debug/pic24fj256ga702/mcc_generated_files/crc.o
 .debug_aranges
                  0x000030         0x18 build/default/debug/pic24fj256ga702/mcc_generated_files/cvr.o
 .debug_aranges
                  0x000048         0x18 build/default/debug/pic24fj256ga702/mcc_generated_files/dma.o
 .debug_aranges
                  0x000060         0x18 build/default/debug/pic24fj256ga702/mcc_generated_files/i2c1.o
 .debug_aranges
                  0x000078         0x18 build/default/debug/pic24fj256ga702/mcc_generated_files/i2c2.o
 .debug_aranges
                  0x000090         0x18 build/default/debug/pic24fj256ga702/mcc_generated_files/interrupt_manager.o
 .debug_aranges
                  0x0000a8         0x18 build/default/debug/pic24fj256ga702/mcc_generated_files/mcc.o
 .debug_aranges
                  0x0000c0         0x18 build/default/debug/pic24fj256ga702/mcc_generated_files/pin_manager.o
 .debug_aranges
                  0x0000d8         0x18 build/default/debug/pic24fj256ga702/mcc_generated_files/system.o
 .debug_aranges
                  0x0000f0         0x18 build/default/debug/pic24fj256ga702/mcc_generated_files/tmr1.o
 .debug_aranges
                  0x000108         0x18 build/default/debug/pic24fj256ga702/mcc_generated_files/tmr2.o
 .debug_aranges
                  0x000120         0x18 build/default/debug/pic24fj256ga702/mcc_generated_files/tmr3.o
 .debug_aranges
                  0x000138         0x18 build/default/debug/pic24fj256ga702/mcc_generated_files/traps.o
 .debug_aranges
                  0x000150         0x18 build/default/debug/pic24fj256ga702/mcc_generated_files/uart1.o
 .debug_aranges
                  0x000168         0x18 build/default/debug/pic24fj256ga702/mcc_generated_files/uart2.o
 .debug_aranges
                  0x000180         0x18 build/default/debug/pic24fj256ga702/mcc_generated_files/adc1.o
 .debug_aranges
                  0x000198         0x18 build/default/debug/pic24fj256ga702/mcc_generated_files/memory/flash.o
 .debug_aranges
                  0x0001b0         0x18 build/default/debug/pic24fj256ga702/mcc_generated_files/i2c2Controller.o
 .debug_aranges
                  0x0001c8         0x18 build/default/debug/pic24fj256ga702/wombatasm.o
 .debug_aranges
                  0x0001e0         0x18 build/default/debug/pic24fj256ga702/pinDigitalHwSpecific.o
 .debug_aranges
                  0x0001f8         0x18 build/default/debug/pic24fj256ga702/updatePulse.o
 .debug_aranges
                  0x000210         0x18 build/default/debug/timingResource.o
 .debug_aranges
                  0x000228         0x18 build/default/debug/quadEnc.o
 .debug_aranges
                  0x000240         0x18 build/default/debug/analogInput.o
 .debug_aranges
                  0x000258         0x18 build/default/debug/pulseTimer.o
 .debug_aranges
                  0x000270         0x18 build/default/debug/debounce.o
 .debug_aranges
                  0x000288         0x18 build/default/debug/protectedOutput.o
 .debug_aranges
                  0x0002a0         0x18 build/default/debug/watchdog.o
 .debug_aranges
                  0x0002b8         0x18 build/default/debug/TM1637.o
 .debug_aranges
                  0x0002d0         0x18 build/default/debug/ws2812.o
 .debug_aranges
                  0x0002e8         0x18 build/default/debug/touch.o
 .debug_aranges
                  0x000300         0x18 build/default/debug/uartHw.o
 .debug_aranges
                  0x000318         0x18 build/default/debug/servo.o
 .debug_aranges
                  0x000330         0x18 build/default/debug/pwm.o
 .debug_aranges
                  0x000348         0x18 build/default/debug/outputScale.o
 .debug_aranges
                  0x000360         0x18 build/default/debug/resistanceInput.o
 .debug_aranges
                  0x000378         0x18 build/default/debug/uartSw.o
 .debug_aranges
                  0x000390         0x18 build/default/debug/throughputConsumer.o
 .debug_aranges
                  0x0003a8         0x18 build/default/debug/matrixKeypad.o
 .debug_aranges
                  0x0003c0         0x18 build/default/debug/inputProcess.o
 .debug_aranges
                  0x0003d8         0x18 build/default/debug/pinInputProcessor.o
 .debug_aranges
                  0x0003f0         0x18 build/default/debug/pulseOnChange.o
 .debug_aranges
                  0x000408         0x18 build/default/debug/hfServo.o
 .debug_aranges
                  0x000420         0x18 build/default/debug/ultrasonicDistance.o
 .debug_aranges
                  0x000438         0x18 build/default/debug/liquidCrystal.o
 .debug_aranges
                  0x000450         0x18 build/default/debug/HSClock.o
 .debug_aranges
                  0x000468         0x18 build/default/debug/HSCounter.o
 .debug_aranges
                  0x000480         0x18 build/default/debug/PS2Keyboard.o
 .debug_aranges
                  0x000498         0x18 build/default/debug/i2cController.o
 .debug_aranges
                  0x0004b0         0x18 build/default/debug/vga.o
 .debug_aranges
                  0x0004c8         0x18 build/default/debug/main.o
 .debug_aranges
                  0x0004e0         0x18 build/default/debug/protocol.o
 .debug_aranges
                  0x0004f8         0x18 build/default/debug/asciiConversion.o
 .debug_aranges
                  0x000510         0x18 build/default/debug/pinRegisters.o
 .debug_aranges
                  0x000528         0x18 build/default/debug/queue.o

.ivt              0x004004         0xfc
                  0x004004          0x4 LONG 0x4dc8 DEFINED (__OscillatorFail)?ABSOLUTE (__OscillatorFail):ABSOLUTE (__DefaultInterrupt)
                  0x004006          0x4 LONG 0x4e0c DEFINED (__AddressError)?ABSOLUTE (__AddressError):ABSOLUTE (__DefaultInterrupt)
                  0x004008          0x4 LONG 0x4e48 DEFINED (__NVMError)?ABSOLUTE (__NVMError):ABSOLUTE (__DefaultInterrupt)
                  0x00400a          0x4 LONG 0x4de6 DEFINED (__StackError)?ABSOLUTE (__StackError):ABSOLUTE (__DefaultInterrupt)
                  0x00400c          0x4 LONG 0x4e2a DEFINED (__MathError)?ABSOLUTE (__MathError):ABSOLUTE (__DefaultInterrupt)
                  0x00400e          0x4 LONG 0x53da DEFINED (__ReservedTrap5)?ABSOLUTE (__ReservedTrap5):ABSOLUTE (__DefaultInterrupt)
                  0x004010          0x4 LONG 0x53da DEFINED (__GeneralError)?ABSOLUTE (__GeneralError):ABSOLUTE (__DefaultInterrupt)
                  0x004012          0x4 LONG 0x53da DEFINED (__ReservedTrap7)?ABSOLUTE (__ReservedTrap7):ABSOLUTE (__DefaultInterrupt)
                  0x004014          0x4 LONG 0x53da DEFINED (__INT0Interrupt)?ABSOLUTE (__INT0Interrupt):ABSOLUTE (__DefaultInterrupt)
                  0x004016          0x4 LONG 0x53da DEFINED (__IC1Interrupt)?ABSOLUTE (__IC1Interrupt):ABSOLUTE (__DefaultInterrupt)
                  0x004018          0x4 LONG 0x5342 DEFINED (__OC1Interrupt)?ABSOLUTE (__OC1Interrupt):ABSOLUTE (__DefaultInterrupt)
                  0x00401a          0x4 LONG 0x4d9a DEFINED (__T1Interrupt)?ABSOLUTE (__T1Interrupt):ABSOLUTE (__DefaultInterrupt)
                  0x00401c          0x4 LONG 0x490c DEFINED (__DMA0Interrupt)?ABSOLUTE (__DMA0Interrupt):ABSOLUTE (__DefaultInterrupt)
                  0x00401e          0x4 LONG 0x53da DEFINED (__IC2Interrupt)?ABSOLUTE (__IC2Interrupt):ABSOLUTE (__DefaultInterrupt)
                  0x004020          0x4 LONG 0x536c DEFINED (__OC2Interrupt)?ABSOLUTE (__OC2Interrupt):ABSOLUTE (__DefaultInterrupt)
                  0x004022          0x4 LONG 0x4d9e DEFINED (__T2Interrupt)?ABSOLUTE (__T2Interrupt):ABSOLUTE (__DefaultInterrupt)
                  0x004024          0x4 LONG 0x53da DEFINED (__T3Interrupt)?ABSOLUTE (__T3Interrupt):ABSOLUTE (__DefaultInterrupt)
                  0x004026          0x4 LONG 0x53da DEFINED (__SPI1Interrupt)?ABSOLUTE (__SPI1Interrupt):ABSOLUTE (__DefaultInterrupt)
                  0x004028          0x4 LONG 0x53da DEFINED (__SPI1TXInterrupt)?ABSOLUTE (__SPI1TXInterrupt):ABSOLUTE (__DefaultInterrupt)
                  0x00402a          0x4 LONG 0x4ecc DEFINED (__U1RXInterrupt)?ABSOLUTE (__U1RXInterrupt):ABSOLUTE (__DefaultInterrupt)
                  0x00402c          0x4 LONG 0x4e66 DEFINED (__U1TXInterrupt)?ABSOLUTE (__U1TXInterrupt):ABSOLUTE (__DefaultInterrupt)
                  0x00402e          0x4 LONG 0x4ff0 DEFINED (__ADC1Interrupt)?ABSOLUTE (__ADC1Interrupt):ABSOLUTE (__DefaultInterrupt)
                  0x004030          0x4 LONG 0x53da DEFINED (__DMA1Interrupt)?ABSOLUTE (__DMA1Interrupt):ABSOLUTE (__DefaultInterrupt)
                  0x004032          0x4 LONG 0x53da DEFINED (__NVMInterrupt)?ABSOLUTE (__NVMInterrupt):ABSOLUTE (__DefaultInterrupt)
                  0x004034          0x4 LONG 0x53da DEFINED (__SI2C1Interrupt)?ABSOLUTE (__SI2C1Interrupt):ABSOLUTE (__DefaultInterrupt)
                  0x004036          0x4 LONG 0x4928 DEFINED (__MI2C1Interrupt)?ABSOLUTE (__MI2C1Interrupt):ABSOLUTE (__DefaultInterrupt)
                  0x004038          0x4 LONG 0x53da DEFINED (__CompInterrupt)?ABSOLUTE (__CompInterrupt):ABSOLUTE (__DefaultInterrupt)
                  0x00403a          0x4 LONG 0x53da DEFINED (__IOCInterrupt)?ABSOLUTE (__IOCInterrupt):ABSOLUTE (__DefaultInterrupt)
                  0x00403c          0x4 LONG 0x53da DEFINED (__INT1Interrupt)?ABSOLUTE (__INT1Interrupt):ABSOLUTE (__DefaultInterrupt)
                  0x00403e          0x4 LONG 0x53da DEFINED (__Interrupt21)?ABSOLUTE (__Interrupt21):ABSOLUTE (__DefaultInterrupt)
                  0x004040          0x4 LONG 0x53da DEFINED (__Interrupt22)?ABSOLUTE (__Interrupt22):ABSOLUTE (__DefaultInterrupt)
                  0x004042          0x4 LONG 0x53da DEFINED (__Interrupt23)?ABSOLUTE (__Interrupt23):ABSOLUTE (__DefaultInterrupt)
                  0x004044          0x4 LONG 0x53da DEFINED (__DMA2Interrupt)?ABSOLUTE (__DMA2Interrupt):ABSOLUTE (__DefaultInterrupt)
                  0x004046          0x4 LONG 0x5394 DEFINED (__OC3Interrupt)?ABSOLUTE (__OC3Interrupt):ABSOLUTE (__DefaultInterrupt)
                  0x004048          0x4 LONG 0x53da DEFINED (__Interrupt26)?ABSOLUTE (__Interrupt26):ABSOLUTE (__DefaultInterrupt)
                  0x00404a          0x4 LONG 0x53da DEFINED (__Interrupt27)?ABSOLUTE (__Interrupt27):ABSOLUTE (__DefaultInterrupt)
                  0x00404c          0x4 LONG 0x53da DEFINED (__Interrupt28)?ABSOLUTE (__Interrupt28):ABSOLUTE (__DefaultInterrupt)
                  0x00404e          0x4 LONG 0x53da DEFINED (__INT2Interrupt)?ABSOLUTE (__INT2Interrupt):ABSOLUTE (__DefaultInterrupt)
                  0x004050          0x4 LONG 0x4f98 DEFINED (__U2RXInterrupt)?ABSOLUTE (__U2RXInterrupt):ABSOLUTE (__DefaultInterrupt)
                  0x004052          0x4 LONG 0x4f32 DEFINED (__U2TXInterrupt)?ABSOLUTE (__U2TXInterrupt):ABSOLUTE (__DefaultInterrupt)
                  0x004054          0x4 LONG 0x53da DEFINED (__SPI2Interrupt)?ABSOLUTE (__SPI2Interrupt):ABSOLUTE (__DefaultInterrupt)
                  0x004056          0x4 LONG 0x53da DEFINED (__SPI2TXInterrupt)?ABSOLUTE (__SPI2TXInterrupt):ABSOLUTE (__DefaultInterrupt)
                  0x004058          0x4 LONG 0x53da DEFINED (__Interrupt34)?ABSOLUTE (__Interrupt34):ABSOLUTE (__DefaultInterrupt)
                  0x00405a          0x4 LONG 0x53da DEFINED (__Interrupt35)?ABSOLUTE (__Interrupt35):ABSOLUTE (__DefaultInterrupt)
                  0x00405c          0x4 LONG 0x53da DEFINED (__DMA3Interrupt)?ABSOLUTE (__DMA3Interrupt):ABSOLUTE (__DefaultInterrupt)
                  0x00405e          0x4 LONG 0x53da DEFINED (__IC3Interrupt)?ABSOLUTE (__IC3Interrupt):ABSOLUTE (__DefaultInterrupt)
                  0x004060          0x4 LONG 0x53da DEFINED (__Interrupt38)?ABSOLUTE (__Interrupt38):ABSOLUTE (__DefaultInterrupt)
                  0x004062          0x4 LONG 0x53da DEFINED (__Interrupt39)?ABSOLUTE (__Interrupt39):ABSOLUTE (__DefaultInterrupt)
                  0x004064          0x4 LONG 0x53da DEFINED (__Interrupt40)?ABSOLUTE (__Interrupt40):ABSOLUTE (__DefaultInterrupt)
                  0x004066          0x4 LONG 0x53da DEFINED (__OC5Interrupt)?ABSOLUTE (__OC5Interrupt):ABSOLUTE (__DefaultInterrupt)
                  0x004068          0x4 LONG 0x53da DEFINED (__OC6Interrupt)?ABSOLUTE (__OC6Interrupt):ABSOLUTE (__DefaultInterrupt)
                  0x00406a          0x4 LONG 0x5276 DEFINED (__CCT3Interrupt)?ABSOLUTE (__CCT3Interrupt):ABSOLUTE (__DefaultInterrupt)
                  0x00406c          0x4 LONG 0x531a DEFINED (__CCT4Interrupt)?ABSOLUTE (__CCT4Interrupt):ABSOLUTE (__DefaultInterrupt)
                  0x00406e          0x4 LONG 0x53da DEFINED (__PMPInterrupt)?ABSOLUTE (__PMPInterrupt):ABSOLUTE (__DefaultInterrupt)
                  0x004070          0x4 LONG 0x53da DEFINED (__DMA4Interrupt)?ABSOLUTE (__DMA4Interrupt):ABSOLUTE (__DefaultInterrupt)
                  0x004072          0x4 LONG 0x53da DEFINED (__Interrupt47)?ABSOLUTE (__Interrupt47):ABSOLUTE (__DefaultInterrupt)
                  0x004074          0x4 LONG 0x53da DEFINED (__Interrupt48)?ABSOLUTE (__Interrupt48):ABSOLUTE (__DefaultInterrupt)
                  0x004076          0x4 LONG 0x4b42 DEFINED (__SI2C2Interrupt)?ABSOLUTE (__SI2C2Interrupt):ABSOLUTE (__DefaultInterrupt)
                  0x004078          0x4 LONG 0x500c DEFINED (__MI2C2Interrupt)?ABSOLUTE (__MI2C2Interrupt):ABSOLUTE (__DefaultInterrupt)
                  0x00407a          0x4 LONG 0x53da DEFINED (__Interrupt51)?ABSOLUTE (__Interrupt51):ABSOLUTE (__DefaultInterrupt)
                  0x00407c          0x4 LONG 0x53da DEFINED (__Interrupt52)?ABSOLUTE (__Interrupt52):ABSOLUTE (__DefaultInterrupt)
                  0x00407e          0x4 LONG 0x53da DEFINED (__INT3Interrupt)?ABSOLUTE (__INT3Interrupt):ABSOLUTE (__DefaultInterrupt)
                  0x004080          0x4 LONG 0x53da DEFINED (__INT4Interrupt)?ABSOLUTE (__INT4Interrupt):ABSOLUTE (__DefaultInterrupt)
                  0x004082          0x4 LONG 0x53da DEFINED (__Interrupt55)?ABSOLUTE (__Interrupt55):ABSOLUTE (__DefaultInterrupt)
                  0x004084          0x4 LONG 0x53da DEFINED (__Interrupt56)?ABSOLUTE (__Interrupt56):ABSOLUTE (__DefaultInterrupt)
                  0x004086          0x4 LONG 0x53da DEFINED (__Interrupt57)?ABSOLUTE (__Interrupt57):ABSOLUTE (__DefaultInterrupt)
                  0x004088          0x4 LONG 0x53da DEFINED (__SPI1RXInterrupt)?ABSOLUTE (__SPI1RXInterrupt):ABSOLUTE (__DefaultInterrupt)
                  0x00408a          0x4 LONG 0x53da DEFINED (__SPI2RXInterrupt)?ABSOLUTE (__SPI2RXInterrupt):ABSOLUTE (__DefaultInterrupt)
                  0x00408c          0x4 LONG 0x53da DEFINED (__SPI3RXInterrupt)?ABSOLUTE (__SPI3RXInterrupt):ABSOLUTE (__DefaultInterrupt)
                  0x00408e          0x4 LONG 0x53bc DEFINED (__DMA5Interrupt)?ABSOLUTE (__DMA5Interrupt):ABSOLUTE (__DefaultInterrupt)
                  0x004090          0x4 LONG 0x53da DEFINED (__RTCCInterrupt)?ABSOLUTE (__RTCCInterrupt):ABSOLUTE (__DefaultInterrupt)
                  0x004092          0x4 LONG 0x53da DEFINED (__CCP1Interrupt)?ABSOLUTE (__CCP1Interrupt):ABSOLUTE (__DefaultInterrupt)
                  0x004094          0x4 LONG 0x53da DEFINED (__CCP2Interrupt)?ABSOLUTE (__CCP2Interrupt):ABSOLUTE (__DefaultInterrupt)
                  0x004096          0x4 LONG 0x4f28 DEFINED (__U1ErrInterrupt)?ABSOLUTE (__U1ErrInterrupt):ABSOLUTE (__DefaultInterrupt)
                  0x004098          0x4 LONG 0x4fe6 DEFINED (__U2ErrInterrupt)?ABSOLUTE (__U2ErrInterrupt):ABSOLUTE (__DefaultInterrupt)
                  0x00409a          0x4 LONG 0x53da DEFINED (__CRCInterrupt)?ABSOLUTE (__CRCInterrupt):ABSOLUTE (__DefaultInterrupt)
                  0x00409c          0x4 LONG 0x53da DEFINED (__Interrupt68)?ABSOLUTE (__Interrupt68):ABSOLUTE (__DefaultInterrupt)
                  0x00409e          0x4 LONG 0x53da DEFINED (__Interrupt69)?ABSOLUTE (__Interrupt69):ABSOLUTE (__DefaultInterrupt)
                  0x0040a0          0x4 LONG 0x53da DEFINED (__Interrupt70)?ABSOLUTE (__Interrupt70):ABSOLUTE (__DefaultInterrupt)
                  0x0040a2          0x4 LONG 0x53da DEFINED (__Interrupt71)?ABSOLUTE (__Interrupt71):ABSOLUTE (__DefaultInterrupt)
                  0x0040a4          0x4 LONG 0x53da DEFINED (__LVDInterrupt)?ABSOLUTE (__LVDInterrupt):ABSOLUTE (__DefaultInterrupt)
                  0x0040a6          0x4 LONG 0x53da DEFINED (__Interrupt73)?ABSOLUTE (__Interrupt73):ABSOLUTE (__DefaultInterrupt)
                  0x0040a8          0x4 LONG 0x53da DEFINED (__Interrupt74)?ABSOLUTE (__Interrupt74):ABSOLUTE (__DefaultInterrupt)
                  0x0040aa          0x4 LONG 0x53da DEFINED (__Interrupt75)?ABSOLUTE (__Interrupt75):ABSOLUTE (__DefaultInterrupt)
                  0x0040ac          0x4 LONG 0x53da DEFINED (__Interrupt76)?ABSOLUTE (__Interrupt76):ABSOLUTE (__DefaultInterrupt)
                  0x0040ae          0x4 LONG 0x53da DEFINED (__CTMUInterrupt)?ABSOLUTE (__CTMUInterrupt):ABSOLUTE (__DefaultInterrupt)
                  0x0040b0          0x4 LONG 0x53da DEFINED (__Interrupt78)?ABSOLUTE (__Interrupt78):ABSOLUTE (__DefaultInterrupt)
                  0x0040b2          0x4 LONG 0x53da DEFINED (__Interrupt79)?ABSOLUTE (__Interrupt79):ABSOLUTE (__DefaultInterrupt)
                  0x0040b4          0x4 LONG 0x53da DEFINED (__Interrupt80)?ABSOLUTE (__Interrupt80):ABSOLUTE (__DefaultInterrupt)
                  0x0040b6          0x4 LONG 0x53da DEFINED (__Interrupt81)?ABSOLUTE (__Interrupt81):ABSOLUTE (__DefaultInterrupt)
                  0x0040b8          0x4 LONG 0x53da DEFINED (__Interrupt82)?ABSOLUTE (__Interrupt82):ABSOLUTE (__DefaultInterrupt)
                  0x0040ba          0x4 LONG 0x53da DEFINED (__Interrupt83)?ABSOLUTE (__Interrupt83):ABSOLUTE (__DefaultInterrupt)
                  0x0040bc          0x4 LONG 0x53da DEFINED (__I2C1BCInterrupt)?ABSOLUTE (__I2C1BCInterrupt):ABSOLUTE (__DefaultInterrupt)
                  0x0040be          0x4 LONG 0x53da DEFINED (__I2C2BCInterrupt)?ABSOLUTE (__I2C2BCInterrupt):ABSOLUTE (__DefaultInterrupt)
                  0x0040c0          0x4 LONG 0x53da DEFINED (__Interrupt86)?ABSOLUTE (__Interrupt86):ABSOLUTE (__DefaultInterrupt)
                  0x0040c2          0x4 LONG 0x53da DEFINED (__Interrupt87)?ABSOLUTE (__Interrupt87):ABSOLUTE (__DefaultInterrupt)
                  0x0040c4          0x4 LONG 0x53da DEFINED (__Interrupt88)?ABSOLUTE (__Interrupt88):ABSOLUTE (__DefaultInterrupt)
                  0x0040c6          0x4 LONG 0x53da DEFINED (__Interrupt89)?ABSOLUTE (__Interrupt89):ABSOLUTE (__DefaultInterrupt)
                  0x0040c8          0x4 LONG 0x53da DEFINED (__SPI3Interrupt)?ABSOLUTE (__SPI3Interrupt):ABSOLUTE (__DefaultInterrupt)
                  0x0040ca          0x4 LONG 0x53da DEFINED (__SPI3TXInterrupt)?ABSOLUTE (__SPI3TXInterrupt):ABSOLUTE (__DefaultInterrupt)
                  0x0040cc          0x4 LONG 0x53da DEFINED (__Interrupt92)?ABSOLUTE (__Interrupt92):ABSOLUTE (__DefaultInterrupt)
                  0x0040ce          0x4 LONG 0x53da DEFINED (__Interrupt93)?ABSOLUTE (__Interrupt93):ABSOLUTE (__DefaultInterrupt)
                  0x0040d0          0x4 LONG 0x53da DEFINED (__CCP3Interrupt)?ABSOLUTE (__CCP3Interrupt):ABSOLUTE (__DefaultInterrupt)
                  0x0040d2          0x4 LONG 0x53da DEFINED (__CCP4Interrupt)?ABSOLUTE (__CCP4Interrupt):ABSOLUTE (__DefaultInterrupt)
                  0x0040d4          0x4 LONG 0x53da DEFINED (__CLC1Interrupt)?ABSOLUTE (__CLC1Interrupt):ABSOLUTE (__DefaultInterrupt)
                  0x0040d6          0x4 LONG 0x53da DEFINED (__CLC2Interrupt)?ABSOLUTE (__CLC2Interrupt):ABSOLUTE (__DefaultInterrupt)
                  0x0040d8          0x4 LONG 0x53da DEFINED (__Interrupt98)?ABSOLUTE (__Interrupt98):ABSOLUTE (__DefaultInterrupt)
                  0x0040da          0x4 LONG 0x53da DEFINED (__Interrupt99)?ABSOLUTE (__Interrupt99):ABSOLUTE (__DefaultInterrupt)
                  0x0040dc          0x4 LONG 0x53da DEFINED (__Interrupt100)?ABSOLUTE (__Interrupt100):ABSOLUTE (__DefaultInterrupt)
                  0x0040de          0x4 LONG 0x5226 DEFINED (__CCT1Interrupt)?ABSOLUTE (__CCT1Interrupt):ABSOLUTE (__DefaultInterrupt)
                  0x0040e0          0x4 LONG 0x524e DEFINED (__CCT2Interrupt)?ABSOLUTE (__CCT2Interrupt):ABSOLUTE (__DefaultInterrupt)
                  0x0040e2          0x4 LONG 0x53da DEFINED (__Interrupt103)?ABSOLUTE (__Interrupt103):ABSOLUTE (__DefaultInterrupt)
                  0x0040e4          0x4 LONG 0x53da DEFINED (__Interrupt104)?ABSOLUTE (__Interrupt104):ABSOLUTE (__DefaultInterrupt)
                  0x0040e6          0x4 LONG 0x53da DEFINED (__Interrupt105)?ABSOLUTE (__Interrupt105):ABSOLUTE (__DefaultInterrupt)
                  0x0040e8          0x4 LONG 0x53da DEFINED (__FSTInterrupt)?ABSOLUTE (__FSTInterrupt):ABSOLUTE (__DefaultInterrupt)
                  0x0040ea          0x4 LONG 0x53da DEFINED (__Interrupt107)?ABSOLUTE (__Interrupt107):ABSOLUTE (__DefaultInterrupt)
                  0x0040ec          0x4 LONG 0x53da DEFINED (__ECCInterrupt)?ABSOLUTE (__ECCInterrupt):ABSOLUTE (__DefaultInterrupt)
                  0x0040ee          0x4 LONG 0x53da DEFINED (__I2C3BCInterrupt)?ABSOLUTE (__I2C3BCInterrupt):ABSOLUTE (__DefaultInterrupt)
                  0x0040f0          0x4 LONG 0x53da DEFINED (__RTCCTSInterrupt)?ABSOLUTE (__RTCCTSInterrupt):ABSOLUTE (__DefaultInterrupt)
                  0x0040f2          0x4 LONG 0x53da DEFINED (__Interrupt111)?ABSOLUTE (__Interrupt111):ABSOLUTE (__DefaultInterrupt)
                  0x0040f4          0x4 LONG 0x53da DEFINED (__Interrupt112)?ABSOLUTE (__Interrupt112):ABSOLUTE (__DefaultInterrupt)
                  0x0040f6          0x4 LONG 0x53da DEFINED (__Interrupt113)?ABSOLUTE (__Interrupt113):ABSOLUTE (__DefaultInterrupt)
                  0x0040f8          0x4 LONG 0x53da DEFINED (__Interrupt114)?ABSOLUTE (__Interrupt114):ABSOLUTE (__DefaultInterrupt)
                  0x0040fa          0x4 LONG 0x53da DEFINED (__Interrupt115)?ABSOLUTE (__Interrupt115):ABSOLUTE (__DefaultInterrupt)
                  0x0040fc          0x4 LONG 0x53da DEFINED (__Interrupt116)?ABSOLUTE (__Interrupt116):ABSOLUTE (__DefaultInterrupt)
                  0x0040fe          0x4 LONG 0x53da DEFINED (__JTAGInterrupt)?ABSOLUTE (__JTAGInterrupt):ABSOLUTE (__DefaultInterrupt)
                    0x0000                  WREG0 = 0x0
                    0x0000                  _WREG0 = 0x0
                    0x0002                  WREG1 = 0x2
                    0x0002                  _WREG1 = 0x2
                    0x0004                  WREG2 = 0x4
                    0x0004                  _WREG2 = 0x4
                    0x0006                  WREG3 = 0x6
                    0x0006                  _WREG3 = 0x6
                    0x0008                  WREG4 = 0x8
                    0x0008                  _WREG4 = 0x8
                    0x000a                  WREG5 = 0xa
                    0x000a                  _WREG5 = 0xa
                    0x000c                  WREG6 = 0xc
                    0x000c                  _WREG6 = 0xc
                    0x000e                  WREG7 = 0xe
                    0x000e                  _WREG7 = 0xe
                    0x0010                  WREG8 = 0x10
                    0x0010                  _WREG8 = 0x10
                    0x0012                  WREG9 = 0x12
                    0x0012                  _WREG9 = 0x12
                    0x0014                  WREG10 = 0x14
                    0x0014                  _WREG10 = 0x14
                    0x0016                  WREG11 = 0x16
                    0x0016                  _WREG11 = 0x16
                    0x0018                  WREG12 = 0x18
                    0x0018                  _WREG12 = 0x18
                    0x001a                  WREG13 = 0x1a
                    0x001a                  _WREG13 = 0x1a
                    0x001c                  WREG14 = 0x1c
                    0x001c                  _WREG14 = 0x1c
                    0x001e                  WREG15 = 0x1e
                    0x001e                  _WREG15 = 0x1e
                    0x0020                  SPLIM = 0x20
                    0x0020                  _SPLIM = 0x20
                    0x002e                  PCL = 0x2e
                    0x002e                  _PCL = 0x2e
                    0x0030                  PCH = 0x30
                    0x0030                  _PCH = 0x30
                    0x0032                  DSRPAG = 0x32
                    0x0032                  _DSRPAG = 0x32
                    0x0032                  _DSRPAGbits = 0x32
                    0x0034                  DSWPAG = 0x34
                    0x0034                  _DSWPAG = 0x34
                    0x0034                  _DSWPAGbits = 0x34
                    0x0036                  RCOUNT = 0x36
                    0x0036                  _RCOUNT = 0x36
                    0x0042                  SR = 0x42
                    0x0042                  _SR = 0x42
                    0x0042                  _SRbits = 0x42
                    0x0044                  CORCON = 0x44
                    0x0044                  _CORCON = 0x44
                    0x0044                  _CORCONbits = 0x44
                    0x0052                  DISICNT = 0x52
                    0x0052                  _DISICNT = 0x52
                    0x0052                  _DISICNTbits = 0x52
                    0x0054                  TBLPAG = 0x54
                    0x0054                  _TBLPAG = 0x54
                    0x0054                  _TBLPAGbits = 0x54
                    0x0080                  INTCON1 = 0x80
                    0x0080                  _INTCON1 = 0x80
                    0x0080                  _INTCON1bits = 0x80
                    0x0082                  INTCON2 = 0x82
                    0x0082                  _INTCON2 = 0x82
                    0x0082                  _INTCON2bits = 0x82
                    0x0086                  INTCON4 = 0x86
                    0x0086                  _INTCON4 = 0x86
                    0x0086                  _INTCON4bits = 0x86
                    0x0088                  IFS0 = 0x88
                    0x0088                  _IFS0 = 0x88
                    0x0088                  _IFS0bits = 0x88
                    0x008a                  IFS1 = 0x8a
                    0x008a                  _IFS1 = 0x8a
                    0x008a                  _IFS1bits = 0x8a
                    0x008c                  IFS2 = 0x8c
                    0x008c                  _IFS2 = 0x8c
                    0x008c                  _IFS2bits = 0x8c
                    0x008e                  IFS3 = 0x8e
                    0x008e                  _IFS3 = 0x8e
                    0x008e                  _IFS3bits = 0x8e
                    0x0090                  IFS4 = 0x90
                    0x0090                  _IFS4 = 0x90
                    0x0090                  _IFS4bits = 0x90
                    0x0092                  IFS5 = 0x92
                    0x0092                  _IFS5 = 0x92
                    0x0092                  _IFS5bits = 0x92
                    0x0094                  IFS6 = 0x94
                    0x0094                  _IFS6 = 0x94
                    0x0094                  _IFS6bits = 0x94
                    0x0096                  IFS7 = 0x96
                    0x0096                  _IFS7 = 0x96
                    0x0096                  _IFS7bits = 0x96
                    0x0098                  IEC0 = 0x98
                    0x0098                  _IEC0 = 0x98
                    0x0098                  _IEC0bits = 0x98
                    0x009a                  IEC1 = 0x9a
                    0x009a                  _IEC1 = 0x9a
                    0x009a                  _IEC1bits = 0x9a
                    0x009c                  IEC2 = 0x9c
                    0x009c                  _IEC2 = 0x9c
                    0x009c                  _IEC2bits = 0x9c
                    0x009e                  IEC3 = 0x9e
                    0x009e                  _IEC3 = 0x9e
                    0x009e                  _IEC3bits = 0x9e
                    0x00a0                  IEC4 = 0xa0
                    0x00a0                  _IEC4 = 0xa0
                    0x00a0                  _IEC4bits = 0xa0
                    0x00a2                  IEC5 = 0xa2
                    0x00a2                  _IEC5 = 0xa2
                    0x00a2                  _IEC5bits = 0xa2
                    0x00a4                  IEC6 = 0xa4
                    0x00a4                  _IEC6 = 0xa4
                    0x00a4                  _IEC6bits = 0xa4
                    0x00a6                  IEC7 = 0xa6
                    0x00a6                  _IEC7 = 0xa6
                    0x00a6                  _IEC7bits = 0xa6
                    0x00a8                  IPC0 = 0xa8
                    0x00a8                  _IPC0 = 0xa8
                    0x00a8                  _IPC0bits = 0xa8
                    0x00aa                  IPC1 = 0xaa
                    0x00aa                  _IPC1 = 0xaa
                    0x00aa                  _IPC1bits = 0xaa
                    0x00ac                  IPC2 = 0xac
                    0x00ac                  _IPC2 = 0xac
                    0x00ac                  _IPC2bits = 0xac
                    0x00ae                  IPC3 = 0xae
                    0x00ae                  _IPC3 = 0xae
                    0x00ae                  _IPC3bits = 0xae
                    0x00b0                  IPC4 = 0xb0
                    0x00b0                  _IPC4 = 0xb0
                    0x00b0                  _IPC4bits = 0xb0
                    0x00b2                  IPC5 = 0xb2
                    0x00b2                  _IPC5 = 0xb2
                    0x00b2                  _IPC5bits = 0xb2
                    0x00b4                  IPC6 = 0xb4
                    0x00b4                  _IPC6 = 0xb4
                    0x00b4                  _IPC6bits = 0xb4
                    0x00b6                  IPC7 = 0xb6
                    0x00b6                  _IPC7 = 0xb6
                    0x00b6                  _IPC7bits = 0xb6
                    0x00b8                  IPC8 = 0xb8
                    0x00b8                  _IPC8 = 0xb8
                    0x00b8                  _IPC8bits = 0xb8
                    0x00ba                  IPC9 = 0xba
                    0x00ba                  _IPC9 = 0xba
                    0x00ba                  _IPC9bits = 0xba
                    0x00bc                  IPC10 = 0xbc
                    0x00bc                  _IPC10 = 0xbc
                    0x00bc                  _IPC10bits = 0xbc
                    0x00be                  IPC11 = 0xbe
                    0x00be                  _IPC11 = 0xbe
                    0x00be                  _IPC11bits = 0xbe
                    0x00c0                  IPC12 = 0xc0
                    0x00c0                  _IPC12 = 0xc0
                    0x00c0                  _IPC12bits = 0xc0
                    0x00c2                  IPC13 = 0xc2
                    0x00c2                  _IPC13 = 0xc2
                    0x00c2                  _IPC13bits = 0xc2
                    0x00c4                  IPC14 = 0xc4
                    0x00c4                  _IPC14 = 0xc4
                    0x00c4                  _IPC14bits = 0xc4
                    0x00c6                  IPC15 = 0xc6
                    0x00c6                  _IPC15 = 0xc6
                    0x00c6                  _IPC15bits = 0xc6
                    0x00c8                  IPC16 = 0xc8
                    0x00c8                  _IPC16 = 0xc8
                    0x00c8                  _IPC16bits = 0xc8
                    0x00ca                  IPC17 = 0xca
                    0x00ca                  _IPC17 = 0xca
                    0x00ca                  _IPC17bits = 0xca
                    0x00cc                  IPC18 = 0xcc
                    0x00cc                  _IPC18 = 0xcc
                    0x00cc                  _IPC18bits = 0xcc
                    0x00ce                  IPC19 = 0xce
                    0x00ce                  _IPC19 = 0xce
                    0x00ce                  _IPC19bits = 0xce
                    0x00d0                  IPC20 = 0xd0
                    0x00d0                  _IPC20 = 0xd0
                    0x00d0                  _IPC20bits = 0xd0
                    0x00d2                  IPC21 = 0xd2
                    0x00d2                  _IPC21 = 0xd2
                    0x00d2                  _IPC21bits = 0xd2
                    0x00d4                  IPC22 = 0xd4
                    0x00d4                  _IPC22 = 0xd4
                    0x00d4                  _IPC22bits = 0xd4
                    0x00d6                  IPC23 = 0xd6
                    0x00d6                  _IPC23 = 0xd6
                    0x00d6                  _IPC23bits = 0xd6
                    0x00d8                  IPC24 = 0xd8
                    0x00d8                  _IPC24 = 0xd8
                    0x00d8                  _IPC24bits = 0xd8
                    0x00da                  IPC25 = 0xda
                    0x00da                  _IPC25 = 0xda
                    0x00da                  _IPC25bits = 0xda
                    0x00dc                  IPC26 = 0xdc
                    0x00dc                  _IPC26 = 0xdc
                    0x00dc                  _IPC26bits = 0xdc
                    0x00de                  IPC27 = 0xde
                    0x00de                  _IPC27 = 0xde
                    0x00de                  _IPC27bits = 0xde
                    0x00e0                  IPC28 = 0xe0
                    0x00e0                  _IPC28 = 0xe0
                    0x00e0                  _IPC28bits = 0xe0
                    0x00e2                  IPC29 = 0xe2
                    0x00e2                  _IPC29 = 0xe2
                    0x00e2                  _IPC29bits = 0xe2
                    0x00e4                  INTTREG = 0xe4
                    0x00e4                  _INTTREG = 0xe4
                    0x00e4                  _INTTREGbits = 0xe4
                    0x0100                  OSCCON = 0x100
                    0x0100                  _OSCCON = 0x100
                    0x0100                  _OSCCONbits = 0x100
                    0x0100                  OSCCONL = 0x100
                    0x0100                  _OSCCONL = 0x100
                    0x0101                  OSCCONH = 0x101
                    0x0101                  _OSCCONH = 0x101
                    0x0102                  CLKDIV = 0x102
                    0x0102                  _CLKDIV = 0x102
                    0x0102                  _CLKDIVbits = 0x102
                    0x0106                  OSCTUN = 0x106
                    0x0106                  _OSCTUN = 0x106
                    0x0106                  _OSCTUNbits = 0x106
                    0x0108                  DCOTUN = 0x108
                    0x0108                  _DCOTUN = 0x108
                    0x0108                  _DCOTUNbits = 0x108
                    0x010a                  DCOCON = 0x10a
                    0x010a                  _DCOCON = 0x10a
                    0x010a                  _DCOCONbits = 0x10a
                    0x010c                  OSCDIV = 0x10c
                    0x010c                  _OSCDIV = 0x10c
                    0x010c                  _OSCDIVbits = 0x10c
                    0x010e                  OSCFDIV = 0x10e
                    0x010e                  _OSCFDIV = 0x10e
                    0x010e                  _OSCFDIVbits = 0x10e
                    0x0110                  RCON = 0x110
                    0x0110                  _RCON = 0x110
                    0x0110                  _RCONbits = 0x110
                    0x0114                  HLVDCON = 0x114
                    0x0114                  _HLVDCON = 0x114
                    0x0114                  _HLVDCONbits = 0x114
                    0x0158                  CRCCON1 = 0x158
                    0x0158                  _CRCCON1 = 0x158
                    0x0158                  _CRCCON1bits = 0x158
                    0x015a                  CRCCON2 = 0x15a
                    0x015a                  _CRCCON2 = 0x15a
                    0x015a                  _CRCCON2bits = 0x15a
                    0x015c                  CRCXORL = 0x15c
                    0x015c                  _CRCXORL = 0x15c
                    0x015c                  _CRCXORLbits = 0x15c
                    0x015e                  CRCXORH = 0x15e
                    0x015e                  _CRCXORH = 0x15e
                    0x015e                  _CRCXORHbits = 0x15e
                    0x0160                  CRCDAT = 0x160
                    0x0160                  _CRCDAT = 0x160
                    0x0160                  CRCDATL = 0x160
                    0x0160                  _CRCDATL = 0x160
                    0x0162                  CRCDATH = 0x162
                    0x0162                  _CRCDATH = 0x162
                    0x0164                  CRCWDAT = 0x164
                    0x0164                  _CRCWDAT = 0x164
                    0x0164                  CRCWDATL = 0x164
                    0x0164                  _CRCWDATL = 0x164
                    0x0166                  CRCWDATH = 0x166
                    0x0166                  _CRCWDATH = 0x166
                    0x0168                  REFOCON1 = 0x168
                    0x0168                  _REFOCON1 = 0x168
                    0x0168                  _REFOCON1bits = 0x168
                    0x0168                  REFOCONL = 0x168
                    0x0168                  _REFOCONL = 0x168
                    0x0168                  _REFOCONLbits = 0x168
                    0x016a                  REFOCON2 = 0x16a
                    0x016a                  _REFOCON2 = 0x16a
                    0x016a                  _REFOCON2bits = 0x16a
                    0x016a                  REFOCONH = 0x16a
                    0x016a                  _REFOCONH = 0x16a
                    0x016a                  _REFOCONHbits = 0x16a
                    0x0178                  PMD1 = 0x178
                    0x0178                  _PMD1 = 0x178
                    0x0178                  _PMD1bits = 0x178
                    0x017a                  PMD2 = 0x17a
                    0x017a                  _PMD2 = 0x17a
                    0x017a                  _PMD2bits = 0x17a
                    0x017c                  PMD3 = 0x17c
                    0x017c                  _PMD3 = 0x17c
                    0x017c                  _PMD3bits = 0x17c
                    0x017e                  PMD4 = 0x17e
                    0x017e                  _PMD4 = 0x17e
                    0x017e                  _PMD4bits = 0x17e
                    0x0180                  PMD5 = 0x180
                    0x0180                  _PMD5 = 0x180
                    0x0180                  _PMD5bits = 0x180
                    0x0182                  PMD6 = 0x182
                    0x0182                  _PMD6 = 0x182
                    0x0182                  _PMD6bits = 0x182
                    0x0184                  PMD7 = 0x184
                    0x0184                  _PMD7 = 0x184
                    0x0184                  _PMD7bits = 0x184
                    0x0186                  PMD8 = 0x186
                    0x0186                  _PMD8 = 0x186
                    0x0186                  _PMD8bits = 0x186
                    0x0190                  TMR1 = 0x190
                    0x0190                  _TMR1 = 0x190
                    0x0192                  PR1 = 0x192
                    0x0192                  _PR1 = 0x192
                    0x0194                  T1CON = 0x194
                    0x0194                  _T1CON = 0x194
                    0x0194                  _T1CONbits = 0x194
                    0x0196                  TMR2 = 0x196
                    0x0196                  _TMR2 = 0x196
                    0x0198                  TMR3HLD = 0x198
                    0x0198                  _TMR3HLD = 0x198
                    0x019a                  TMR3 = 0x19a
                    0x019a                  _TMR3 = 0x19a
                    0x019c                  PR2 = 0x19c
                    0x019c                  _PR2 = 0x19c
                    0x019e                  PR3 = 0x19e
                    0x019e                  _PR3 = 0x19e
                    0x01a0                  T2CON = 0x1a0
                    0x01a0                  _T2CON = 0x1a0
                    0x01a0                  _T2CONbits = 0x1a0
                    0x01a2                  T3CON = 0x1a2
                    0x01a2                  _T3CON = 0x1a2
                    0x01a2                  _T3CONbits = 0x1a2
                    0x01c0                  CTMUCON1L = 0x1c0
                    0x01c0                  _CTMUCON1L = 0x1c0
                    0x01c0                  _CTMUCON1Lbits = 0x1c0
                    0x01c2                  CTMUCON1H = 0x1c2
                    0x01c2                  _CTMUCON1H = 0x1c2
                    0x01c2                  _CTMUCON1Hbits = 0x1c2
                    0x01c4                  CTMUCON2L = 0x1c4
                    0x01c4                  _CTMUCON2L = 0x1c4
                    0x01c4                  _CTMUCON2Lbits = 0x1c4
                    0x01cc                  RTCCON1L = 0x1cc
                    0x01cc                  _RTCCON1L = 0x1cc
                    0x01cc                  _RTCCON1Lbits = 0x1cc
                    0x01ce                  RTCCON1H = 0x1ce
                    0x01ce                  _RTCCON1H = 0x1ce
                    0x01ce                  _RTCCON1Hbits = 0x1ce
                    0x01d0                  RTCCON2L = 0x1d0
                    0x01d0                  _RTCCON2L = 0x1d0
                    0x01d0                  _RTCCON2Lbits = 0x1d0
                    0x01d2                  RTCCON2H = 0x1d2
                    0x01d2                  _RTCCON2H = 0x1d2
                    0x01d4                  RTCCON3L = 0x1d4
                    0x01d4                  _RTCCON3L = 0x1d4
                    0x01d4                  _RTCCON3Lbits = 0x1d4
                    0x01d8                  RTCSTATL = 0x1d8
                    0x01d8                  _RTCSTATL = 0x1d8
                    0x01d8                  _RTCSTATLbits = 0x1d8
                    0x01dc                  TIMEL = 0x1dc
                    0x01dc                  _TIMEL = 0x1dc
                    0x01dc                  _TIMELbits = 0x1dc
                    0x01de                  TIMEH = 0x1de
                    0x01de                  _TIMEH = 0x1de
                    0x01de                  _TIMEHbits = 0x1de
                    0x01e0                  DATEL = 0x1e0
                    0x01e0                  _DATEL = 0x1e0
                    0x01e0                  _DATELbits = 0x1e0
                    0x01e2                  DATEH = 0x1e2
                    0x01e2                  _DATEH = 0x1e2
                    0x01e2                  _DATEHbits = 0x1e2
                    0x01e4                  ALMTIMEL = 0x1e4
                    0x01e4                  _ALMTIMEL = 0x1e4
                    0x01e4                  _ALMTIMELbits = 0x1e4
                    0x01e6                  ALMTIMEH = 0x1e6
                    0x01e6                  _ALMTIMEH = 0x1e6
                    0x01e6                  _ALMTIMEHbits = 0x1e6
                    0x01e8                  ALMDATEL = 0x1e8
                    0x01e8                  _ALMDATEL = 0x1e8
                    0x01e8                  _ALMDATELbits = 0x1e8
                    0x01ea                  ALMDATEH = 0x1ea
                    0x01ea                  _ALMDATEH = 0x1ea
                    0x01ea                  _ALMDATEHbits = 0x1ea
                    0x01ec                  TSATIMEL = 0x1ec
                    0x01ec                  _TSATIMEL = 0x1ec
                    0x01ec                  _TSATIMELbits = 0x1ec
                    0x01ee                  TSATIMEH = 0x1ee
                    0x01ee                  _TSATIMEH = 0x1ee
                    0x01ee                  _TSATIMEHbits = 0x1ee
                    0x01f0                  TSADATEL = 0x1f0
                    0x01f0                  _TSADATEL = 0x1f0
                    0x01f0                  _TSADATELbits = 0x1f0
                    0x01f2                  TSADATEH = 0x1f2
                    0x01f2                  _TSADATEH = 0x1f2
                    0x01f2                  _TSADATEHbits = 0x1f2
                    0x0200                  IC1CON1 = 0x200
                    0x0200                  _IC1CON1 = 0x200
                    0x0200                  _IC1CON1bits = 0x200
                    0x0202                  IC1CON2 = 0x202
                    0x0202                  _IC1CON2 = 0x202
                    0x0202                  _IC1CON2bits = 0x202
                    0x0204                  IC1BUF = 0x204
                    0x0204                  _IC1BUF = 0x204
                    0x0206                  IC1TMR = 0x206
                    0x0206                  _IC1TMR = 0x206
                    0x0208                  IC2CON1 = 0x208
                    0x0208                  _IC2CON1 = 0x208
                    0x0208                  _IC2CON1bits = 0x208
                    0x020a                  IC2CON2 = 0x20a
                    0x020a                  _IC2CON2 = 0x20a
                    0x020a                  _IC2CON2bits = 0x20a
                    0x020c                  IC2BUF = 0x20c
                    0x020c                  _IC2BUF = 0x20c
                    0x020e                  IC2TMR = 0x20e
                    0x020e                  _IC2TMR = 0x20e
                    0x0210                  IC3CON1 = 0x210
                    0x0210                  _IC3CON1 = 0x210
                    0x0210                  _IC3CON1bits = 0x210
                    0x0212                  IC3CON2 = 0x212
                    0x0212                  _IC3CON2 = 0x212
                    0x0212                  _IC3CON2bits = 0x212
                    0x0214                  IC3BUF = 0x214
                    0x0214                  _IC3BUF = 0x214
                    0x0216                  IC3TMR = 0x216
                    0x0216                  _IC3TMR = 0x216
                    0x0230                  OC1CON1 = 0x230
                    0x0230                  _OC1CON1 = 0x230
                    0x0230                  _OC1CON1bits = 0x230
                    0x0232                  OC1CON2 = 0x232
                    0x0232                  _OC1CON2 = 0x232
                    0x0232                  _OC1CON2bits = 0x232
                    0x0234                  OC1RS = 0x234
                    0x0234                  _OC1RS = 0x234
                    0x0236                  OC1R = 0x236
                    0x0236                  _OC1R = 0x236
                    0x0238                  OC1TMR = 0x238
                    0x0238                  _OC1TMR = 0x238
                    0x023a                  OC2CON1 = 0x23a
                    0x023a                  _OC2CON1 = 0x23a
                    0x023a                  _OC2CON1bits = 0x23a
                    0x023c                  OC2CON2 = 0x23c
                    0x023c                  _OC2CON2 = 0x23c
                    0x023c                  _OC2CON2bits = 0x23c
                    0x023e                  OC2RS = 0x23e
                    0x023e                  _OC2RS = 0x23e
                    0x0240                  OC2R = 0x240
                    0x0240                  _OC2R = 0x240
                    0x0242                  OC2TMR = 0x242
                    0x0242                  _OC2TMR = 0x242
                    0x0244                  OC3CON1 = 0x244
                    0x0244                  _OC3CON1 = 0x244
                    0x0244                  _OC3CON1bits = 0x244
                    0x0246                  OC3CON2 = 0x246
                    0x0246                  _OC3CON2 = 0x246
                    0x0246                  _OC3CON2bits = 0x246
                    0x0248                  OC3RS = 0x248
                    0x0248                  _OC3RS = 0x248
                    0x024a                  OC3R = 0x24a
                    0x024a                  _OC3R = 0x24a
                    0x024c                  OC3TMR = 0x24c
                    0x024c                  _OC3TMR = 0x24c
                    0x026c                  CCP1CON1L = 0x26c
                    0x026c                  _CCP1CON1L = 0x26c
                    0x026c                  _CCP1CON1Lbits = 0x26c
                    0x026e                  CCP1CON1H = 0x26e
                    0x026e                  _CCP1CON1H = 0x26e
                    0x026e                  _CCP1CON1Hbits = 0x26e
                    0x0270                  CCP1CON2L = 0x270
                    0x0270                  _CCP1CON2L = 0x270
                    0x0270                  _CCP1CON2Lbits = 0x270
                    0x0272                  CCP1CON2H = 0x272
                    0x0272                  _CCP1CON2H = 0x272
                    0x0272                  _CCP1CON2Hbits = 0x272
                    0x0274                  CCP1CON3L = 0x274
                    0x0274                  _CCP1CON3L = 0x274
                    0x0274                  _CCP1CON3Lbits = 0x274
                    0x0276                  CCP1CON3H = 0x276
                    0x0276                  _CCP1CON3H = 0x276
                    0x0276                  _CCP1CON3Hbits = 0x276
                    0x0278                  CCP1STAT = 0x278
                    0x0278                  _CCP1STAT = 0x278
                    0x0278                  _CCP1STATbits = 0x278
                    0x0278                  CCP1STATL = 0x278
                    0x0278                  _CCP1STATL = 0x278
                    0x0278                  _CCP1STATLbits = 0x278
                    0x027a                  CCP1STATH = 0x27a
                    0x027a                  _CCP1STATH = 0x27a
                    0x027a                  _CCP1STATHbits = 0x27a
                    0x027c                  CCP1TMRL = 0x27c
                    0x027c                  _CCP1TMRL = 0x27c
                    0x027e                  CCP1TMRH = 0x27e
                    0x027e                  _CCP1TMRH = 0x27e
                    0x0280                  CCP1PRL = 0x280
                    0x0280                  _CCP1PRL = 0x280
                    0x0282                  CCP1PRH = 0x282
                    0x0282                  _CCP1PRH = 0x282
                    0x0284                  CCP1RA = 0x284
                    0x0284                  _CCP1RA = 0x284
                    0x0284                  CCP1RAL = 0x284
                    0x0284                  _CCP1RAL = 0x284
                    0x0286                  CCP1RAH = 0x286
                    0x0286                  _CCP1RAH = 0x286
                    0x0288                  CCP1RB = 0x288
                    0x0288                  _CCP1RB = 0x288
                    0x0288                  CCP1RBL = 0x288
                    0x0288                  _CCP1RBL = 0x288
                    0x028a                  CCP1RBH = 0x28a
                    0x028a                  _CCP1RBH = 0x28a
                    0x028c                  CCP1BUFL = 0x28c
                    0x028c                  _CCP1BUFL = 0x28c
                    0x028e                  CCP1BUFH = 0x28e
                    0x028e                  _CCP1BUFH = 0x28e
                    0x0290                  CCP2CON1L = 0x290
                    0x0290                  _CCP2CON1L = 0x290
                    0x0290                  _CCP2CON1Lbits = 0x290
                    0x0292                  CCP2CON1H = 0x292
                    0x0292                  _CCP2CON1H = 0x292
                    0x0292                  _CCP2CON1Hbits = 0x292
                    0x0294                  CCP2CON2L = 0x294
                    0x0294                  _CCP2CON2L = 0x294
                    0x0294                  _CCP2CON2Lbits = 0x294
                    0x0296                  CCP2CON2H = 0x296
                    0x0296                  _CCP2CON2H = 0x296
                    0x0296                  _CCP2CON2Hbits = 0x296
                    0x029a                  CCP2CON3H = 0x29a
                    0x029a                  _CCP2CON3H = 0x29a
                    0x029a                  _CCP2CON3Hbits = 0x29a
                    0x029c                  CCP2STAT = 0x29c
                    0x029c                  _CCP2STAT = 0x29c
                    0x029c                  _CCP2STATbits = 0x29c
                    0x029c                  CCP2STATL = 0x29c
                    0x029c                  _CCP2STATL = 0x29c
                    0x029c                  _CCP2STATLbits = 0x29c
                    0x029e                  CCP2STATH = 0x29e
                    0x029e                  _CCP2STATH = 0x29e
                    0x029e                  _CCP2STATHbits = 0x29e
                    0x02a0                  CCP2TMRL = 0x2a0
                    0x02a0                  _CCP2TMRL = 0x2a0
                    0x02a2                  CCP2TMRH = 0x2a2
                    0x02a2                  _CCP2TMRH = 0x2a2
                    0x02a4                  CCP2PRL = 0x2a4
                    0x02a4                  _CCP2PRL = 0x2a4
                    0x02a6                  CCP2PRH = 0x2a6
                    0x02a6                  _CCP2PRH = 0x2a6
                    0x02a8                  CCP2RA = 0x2a8
                    0x02a8                  _CCP2RA = 0x2a8
                    0x02a8                  CCP2RAL = 0x2a8
                    0x02a8                  _CCP2RAL = 0x2a8
                    0x02aa                  CCP2RAH = 0x2aa
                    0x02aa                  _CCP2RAH = 0x2aa
                    0x02ac                  CCP2RB = 0x2ac
                    0x02ac                  _CCP2RB = 0x2ac
                    0x02ac                  CCP2RBL = 0x2ac
                    0x02ac                  _CCP2RBL = 0x2ac
                    0x02ae                  CCP2RBH = 0x2ae
                    0x02ae                  _CCP2RBH = 0x2ae
                    0x02b0                  CCP2BUFL = 0x2b0
                    0x02b0                  _CCP2BUFL = 0x2b0
                    0x02b2                  CCP2BUFH = 0x2b2
                    0x02b2                  _CCP2BUFH = 0x2b2
                    0x02b4                  CCP3CON1L = 0x2b4
                    0x02b4                  _CCP3CON1L = 0x2b4
                    0x02b4                  _CCP3CON1Lbits = 0x2b4
                    0x02b6                  CCP3CON1H = 0x2b6
                    0x02b6                  _CCP3CON1H = 0x2b6
                    0x02b6                  _CCP3CON1Hbits = 0x2b6
                    0x02b8                  CCP3CON2L = 0x2b8
                    0x02b8                  _CCP3CON2L = 0x2b8
                    0x02b8                  _CCP3CON2Lbits = 0x2b8
                    0x02ba                  CCP3CON2H = 0x2ba
                    0x02ba                  _CCP3CON2H = 0x2ba
                    0x02ba                  _CCP3CON2Hbits = 0x2ba
                    0x02be                  CCP3CON3H = 0x2be
                    0x02be                  _CCP3CON3H = 0x2be
                    0x02be                  _CCP3CON3Hbits = 0x2be
                    0x02c0                  CCP3STAT = 0x2c0
                    0x02c0                  _CCP3STAT = 0x2c0
                    0x02c0                  _CCP3STATbits = 0x2c0
                    0x02c0                  CCP3STATL = 0x2c0
                    0x02c0                  _CCP3STATL = 0x2c0
                    0x02c0                  _CCP3STATLbits = 0x2c0
                    0x02c2                  CCP3STATH = 0x2c2
                    0x02c2                  _CCP3STATH = 0x2c2
                    0x02c2                  _CCP3STATHbits = 0x2c2
                    0x02c4                  CCP3TMRL = 0x2c4
                    0x02c4                  _CCP3TMRL = 0x2c4
                    0x02c6                  CCP3TMRH = 0x2c6
                    0x02c6                  _CCP3TMRH = 0x2c6
                    0x02c8                  CCP3PRL = 0x2c8
                    0x02c8                  _CCP3PRL = 0x2c8
                    0x02ca                  CCP3PRH = 0x2ca
                    0x02ca                  _CCP3PRH = 0x2ca
                    0x02cc                  CCP3RA = 0x2cc
                    0x02cc                  _CCP3RA = 0x2cc
                    0x02cc                  CCP3RAL = 0x2cc
                    0x02cc                  _CCP3RAL = 0x2cc
                    0x02ce                  CCP3RAH = 0x2ce
                    0x02ce                  _CCP3RAH = 0x2ce
                    0x02d0                  CCP3RB = 0x2d0
                    0x02d0                  _CCP3RB = 0x2d0
                    0x02d0                  CCP3RBL = 0x2d0
                    0x02d0                  _CCP3RBL = 0x2d0
                    0x02d2                  CCP3RBH = 0x2d2
                    0x02d2                  _CCP3RBH = 0x2d2
                    0x02d4                  CCP3BUFL = 0x2d4
                    0x02d4                  _CCP3BUFL = 0x2d4
                    0x02d6                  CCP3BUFH = 0x2d6
                    0x02d6                  _CCP3BUFH = 0x2d6
                    0x02e6                  CMSTAT = 0x2e6
                    0x02e6                  _CMSTAT = 0x2e6
                    0x02e6                  _CMSTATbits = 0x2e6
                    0x02e8                  CVRCON = 0x2e8
                    0x02e8                  _CVRCON = 0x2e8
                    0x02e8                  _CVRCONbits = 0x2e8
                    0x02ea                  CM1CON = 0x2ea
                    0x02ea                  _CM1CON = 0x2ea
                    0x02ea                  _CM1CONbits = 0x2ea
                    0x02ec                  CM2CON = 0x2ec
                    0x02ec                  _CM2CON = 0x2ec
                    0x02ec                  _CM2CONbits = 0x2ec
                    0x02ee                  CM3CON = 0x2ee
                    0x02ee                  _CM3CON = 0x2ee
                    0x02ee                  _CM3CONbits = 0x2ee
                    0x02f4                  ANCFG = 0x2f4
                    0x02f4                  _ANCFG = 0x2f4
                    0x02f4                  _ANCFGbits = 0x2f4
                    0x0300                  CCP4CON1L = 0x300
                    0x0300                  _CCP4CON1L = 0x300
                    0x0300                  _CCP4CON1Lbits = 0x300
                    0x0302                  CCP4CON1H = 0x302
                    0x0302                  _CCP4CON1H = 0x302
                    0x0302                  _CCP4CON1Hbits = 0x302
                    0x0304                  CCP4CON2L = 0x304
                    0x0304                  _CCP4CON2L = 0x304
                    0x0304                  _CCP4CON2Lbits = 0x304
                    0x0306                  CCP4CON2H = 0x306
                    0x0306                  _CCP4CON2H = 0x306
                    0x0306                  _CCP4CON2Hbits = 0x306
                    0x030a                  CCP4CON3H = 0x30a
                    0x030a                  _CCP4CON3H = 0x30a
                    0x030a                  _CCP4CON3Hbits = 0x30a
                    0x030c                  CCP4STAT = 0x30c
                    0x030c                  _CCP4STAT = 0x30c
                    0x030c                  _CCP4STATbits = 0x30c
                    0x030c                  CCP4STATL = 0x30c
                    0x030c                  _CCP4STATL = 0x30c
                    0x030c                  _CCP4STATLbits = 0x30c
                    0x030e                  CCP4STATH = 0x30e
                    0x030e                  _CCP4STATH = 0x30e
                    0x030e                  _CCP4STATHbits = 0x30e
                    0x0310                  CCP4TMRL = 0x310
                    0x0310                  _CCP4TMRL = 0x310
                    0x0312                  CCP4TMRH = 0x312
                    0x0312                  _CCP4TMRH = 0x312
                    0x0314                  CCP4PRL = 0x314
                    0x0314                  _CCP4PRL = 0x314
                    0x0316                  CCP4PRH = 0x316
                    0x0316                  _CCP4PRH = 0x316
                    0x0318                  CCP4RA = 0x318
                    0x0318                  _CCP4RA = 0x318
                    0x0318                  CCP4RAL = 0x318
                    0x0318                  _CCP4RAL = 0x318
                    0x031a                  CCP4RAH = 0x31a
                    0x031a                  _CCP4RAH = 0x31a
                    0x031c                  CCP4RB = 0x31c
                    0x031c                  _CCP4RB = 0x31c
                    0x031c                  CCP4RBL = 0x31c
                    0x031c                  _CCP4RBL = 0x31c
                    0x031e                  CCP4RBH = 0x31e
                    0x031e                  _CCP4RBH = 0x31e
                    0x0320                  CCP4BUFL = 0x320
                    0x0320                  _CCP4BUFL = 0x320
                    0x0322                  CCP4BUFH = 0x322
                    0x0322                  _CCP4BUFH = 0x322
                    0x0398                  U1MODE = 0x398
                    0x0398                  _U1MODE = 0x398
                    0x0398                  _U1MODEbits = 0x398
                    0x039a                  U1STA = 0x39a
                    0x039a                  _U1STA = 0x39a
                    0x039a                  _U1STAbits = 0x39a
                    0x039c                  U1TXREG = 0x39c
                    0x039c                  _U1TXREG = 0x39c
                    0x039c                  _U1TXREGbits = 0x39c
                    0x039e                  U1RXREG = 0x39e
                    0x039e                  _U1RXREG = 0x39e
                    0x03a0                  U1BRG = 0x3a0
                    0x03a0                  _U1BRG = 0x3a0
                    0x03a2                  U1ADMD = 0x3a2
                    0x03a2                  _U1ADMD = 0x3a2
                    0x03a2                  _U1ADMDbits = 0x3a2
                    0x03a4                  U1SCCON = 0x3a4
                    0x03a4                  _U1SCCON = 0x3a4
                    0x03a4                  _U1SCCONbits = 0x3a4
                    0x03a6                  U1SCINT = 0x3a6
                    0x03a6                  _U1SCINT = 0x3a6
                    0x03a6                  _U1SCINTbits = 0x3a6
                    0x03a8                  U1GTC = 0x3a8
                    0x03a8                  _U1GTC = 0x3a8
                    0x03a8                  _U1GTCbits = 0x3a8
                    0x03aa                  U1WTCL = 0x3aa
                    0x03aa                  _U1WTCL = 0x3aa
                    0x03aa                  _U1WTCLbits = 0x3aa
                    0x03ac                  U1WTCH = 0x3ac
                    0x03ac                  _U1WTCH = 0x3ac
                    0x03ac                  _U1WTCHbits = 0x3ac
                    0x03ae                  U2MODE = 0x3ae
                    0x03ae                  _U2MODE = 0x3ae
                    0x03ae                  _U2MODEbits = 0x3ae
                    0x03b0                  U2STA = 0x3b0
                    0x03b0                  _U2STA = 0x3b0
                    0x03b0                  _U2STAbits = 0x3b0
                    0x03b2                  U2TXREG = 0x3b2
                    0x03b2                  _U2TXREG = 0x3b2
                    0x03b2                  _U2TXREGbits = 0x3b2
                    0x03b4                  U2RXREG = 0x3b4
                    0x03b4                  _U2RXREG = 0x3b4
                    0x03b6                  U2BRG = 0x3b6
                    0x03b6                  _U2BRG = 0x3b6
                    0x03b8                  U2ADMD = 0x3b8
                    0x03b8                  _U2ADMD = 0x3b8
                    0x03b8                  _U2ADMDbits = 0x3b8
                    0x03ba                  U2SCCON = 0x3ba
                    0x03ba                  _U2SCCON = 0x3ba
                    0x03ba                  _U2SCCONbits = 0x3ba
                    0x03bc                  U2SCINT = 0x3bc
                    0x03bc                  _U2SCINT = 0x3bc
                    0x03bc                  _U2SCINTbits = 0x3bc
                    0x03be                  U2GTC = 0x3be
                    0x03be                  _U2GTC = 0x3be
                    0x03be                  _U2GTCbits = 0x3be
                    0x03c0                  U2WTCL = 0x3c0
                    0x03c0                  _U2WTCL = 0x3c0
                    0x03c0                  _U2WTCLbits = 0x3c0
                    0x03c2                  U2WTCH = 0x3c2
                    0x03c2                  _U2WTCH = 0x3c2
                    0x03c2                  _U2WTCHbits = 0x3c2
                    0x03f4                  SPI1CON1 = 0x3f4
                    0x03f4                  _SPI1CON1 = 0x3f4
                    0x03f4                  _SPI1CON1bits = 0x3f4
                    0x03f4                  SPI1CON1L = 0x3f4
                    0x03f4                  _SPI1CON1L = 0x3f4
                    0x03f4                  _SPI1CON1Lbits = 0x3f4
                    0x03f6                  SPI1CON1H = 0x3f6
                    0x03f6                  _SPI1CON1H = 0x3f6
                    0x03f6                  _SPI1CON1Hbits = 0x3f6
                    0x03f6                  SPI1CON2 = 0x3f6
                    0x03f6                  _SPI1CON2 = 0x3f6
                    0x03f6                  _SPI1CON2bits = 0x3f6
                    0x03f8                  SPI1CON2L = 0x3f8
                    0x03f8                  _SPI1CON2L = 0x3f8
                    0x03f8                  _SPI1CON2Lbits = 0x3f8
                    0x03f8                  SPI1CON3 = 0x3f8
                    0x03f8                  _SPI1CON3 = 0x3f8
                    0x03f8                  _SPI1CON3bits = 0x3f8
                    0x03fc                  SPI1STATL = 0x3fc
                    0x03fc                  _SPI1STATL = 0x3fc
                    0x03fc                  _SPI1STATLbits = 0x3fc
                    0x03fe                  SPI1STATH = 0x3fe
                    0x03fe                  _SPI1STATH = 0x3fe
                    0x03fe                  _SPI1STATHbits = 0x3fe
                    0x0400                  SPI1BUFL = 0x400
                    0x0400                  _SPI1BUFL = 0x400
                    0x0400                  _SPI1BUFLbits = 0x400
                    0x0402                  SPI1BUFH = 0x402
                    0x0402                  _SPI1BUFH = 0x402
                    0x0402                  _SPI1BUFHbits = 0x402
                    0x0404                  SPI1BRGL = 0x404
                    0x0404                  _SPI1BRGL = 0x404
                    0x0404                  _SPI1BRGLbits = 0x404
                    0x0408                  SPI1IMSK1 = 0x408
                    0x0408                  _SPI1IMSK1 = 0x408
                    0x0408                  _SPI1IMSK1bits = 0x408
                    0x0408                  SPI1IMSKL = 0x408
                    0x0408                  _SPI1IMSKL = 0x408
                    0x0408                  _SPI1IMSKLbits = 0x408
                    0x040a                  SPI1IMSK2 = 0x40a
                    0x040a                  _SPI1IMSK2 = 0x40a
                    0x040a                  _SPI1IMSK2bits = 0x40a
                    0x040a                  SPI1IMSKH = 0x40a
                    0x040a                  _SPI1IMSKH = 0x40a
                    0x040a                  _SPI1IMSKHbits = 0x40a
                    0x040c                  SPI1URDTL = 0x40c
                    0x040c                  _SPI1URDTL = 0x40c
                    0x040c                  _SPI1URDTLbits = 0x40c
                    0x040e                  SPI1URDTH = 0x40e
                    0x040e                  _SPI1URDTH = 0x40e
                    0x040e                  _SPI1URDTHbits = 0x40e
                    0x0410                  SPI2CON1 = 0x410
                    0x0410                  _SPI2CON1 = 0x410
                    0x0410                  _SPI2CON1bits = 0x410
                    0x0410                  SPI2CON1L = 0x410
                    0x0410                  _SPI2CON1L = 0x410
                    0x0410                  _SPI2CON1Lbits = 0x410
                    0x0412                  SPI2CON1H = 0x412
                    0x0412                  _SPI2CON1H = 0x412
                    0x0412                  _SPI2CON1Hbits = 0x412
                    0x0412                  SPI2CON2 = 0x412
                    0x0412                  _SPI2CON2 = 0x412
                    0x0412                  _SPI2CON2bits = 0x412
                    0x0414                  SPI2CON2L = 0x414
                    0x0414                  _SPI2CON2L = 0x414
                    0x0414                  _SPI2CON2Lbits = 0x414
                    0x0414                  SPI2CON3 = 0x414
                    0x0414                  _SPI2CON3 = 0x414
                    0x0414                  _SPI2CON3bits = 0x414
                    0x0418                  SPI2STATL = 0x418
                    0x0418                  _SPI2STATL = 0x418
                    0x0418                  _SPI2STATLbits = 0x418
                    0x041a                  SPI2STATH = 0x41a
                    0x041a                  _SPI2STATH = 0x41a
                    0x041a                  _SPI2STATHbits = 0x41a
                    0x041c                  SPI2BUFL = 0x41c
                    0x041c                  _SPI2BUFL = 0x41c
                    0x041c                  _SPI2BUFLbits = 0x41c
                    0x041e                  SPI2BUFH = 0x41e
                    0x041e                  _SPI2BUFH = 0x41e
                    0x041e                  _SPI2BUFHbits = 0x41e
                    0x0420                  SPI2BRGL = 0x420
                    0x0420                  _SPI2BRGL = 0x420
                    0x0420                  _SPI2BRGLbits = 0x420
                    0x0424                  SPI2IMSK1 = 0x424
                    0x0424                  _SPI2IMSK1 = 0x424
                    0x0424                  _SPI2IMSK1bits = 0x424
                    0x0424                  SPI2IMSKL = 0x424
                    0x0424                  _SPI2IMSKL = 0x424
                    0x0424                  _SPI2IMSKLbits = 0x424
                    0x0426                  SPI2IMSK2 = 0x426
                    0x0426                  _SPI2IMSK2 = 0x426
                    0x0426                  _SPI2IMSK2bits = 0x426
                    0x0426                  SPI2IMSKH = 0x426
                    0x0426                  _SPI2IMSKH = 0x426
                    0x0426                  _SPI2IMSKHbits = 0x426
                    0x0428                  SPI2URDTL = 0x428
                    0x0428                  _SPI2URDTL = 0x428
                    0x0428                  _SPI2URDTLbits = 0x428
                    0x042a                  SPI2URDTH = 0x42a
                    0x042a                  _SPI2URDTH = 0x42a
                    0x042a                  _SPI2URDTHbits = 0x42a
                    0x042c                  SPI3CON1 = 0x42c
                    0x042c                  _SPI3CON1 = 0x42c
                    0x042c                  _SPI3CON1bits = 0x42c
                    0x042c                  SPI3CON1L = 0x42c
                    0x042c                  _SPI3CON1L = 0x42c
                    0x042c                  _SPI3CON1Lbits = 0x42c
                    0x042e                  SPI3CON1H = 0x42e
                    0x042e                  _SPI3CON1H = 0x42e
                    0x042e                  _SPI3CON1Hbits = 0x42e
                    0x042e                  SPI3CON2 = 0x42e
                    0x042e                  _SPI3CON2 = 0x42e
                    0x042e                  _SPI3CON2bits = 0x42e
                    0x0430                  SPI3CON2L = 0x430
                    0x0430                  _SPI3CON2L = 0x430
                    0x0430                  _SPI3CON2Lbits = 0x430
                    0x0430                  SPI3CON3 = 0x430
                    0x0430                  _SPI3CON3 = 0x430
                    0x0430                  _SPI3CON3bits = 0x430
                    0x0434                  SPI3STATL = 0x434
                    0x0434                  _SPI3STATL = 0x434
                    0x0434                  _SPI3STATLbits = 0x434
                    0x0436                  SPI3STATH = 0x436
                    0x0436                  _SPI3STATH = 0x436
                    0x0436                  _SPI3STATHbits = 0x436
                    0x0438                  SPI3BUFL = 0x438
                    0x0438                  _SPI3BUFL = 0x438
                    0x0438                  _SPI3BUFLbits = 0x438
                    0x043a                  SPI3BUFH = 0x43a
                    0x043a                  _SPI3BUFH = 0x43a
                    0x043a                  _SPI3BUFHbits = 0x43a
                    0x043c                  SPI3BRGL = 0x43c
                    0x043c                  _SPI3BRGL = 0x43c
                    0x043c                  _SPI3BRGLbits = 0x43c
                    0x0440                  SPI3IMSK1 = 0x440
                    0x0440                  _SPI3IMSK1 = 0x440
                    0x0440                  _SPI3IMSK1bits = 0x440
                    0x0440                  SPI3IMSKL = 0x440
                    0x0440                  _SPI3IMSKL = 0x440
                    0x0440                  _SPI3IMSKLbits = 0x440
                    0x0442                  SPI3IMSK2 = 0x442
                    0x0442                  _SPI3IMSK2 = 0x442
                    0x0442                  _SPI3IMSK2bits = 0x442
                    0x0442                  SPI3IMSKH = 0x442
                    0x0442                  _SPI3IMSKH = 0x442
                    0x0442                  _SPI3IMSKHbits = 0x442
                    0x0444                  SPI3URDTL = 0x444
                    0x0444                  _SPI3URDTL = 0x444
                    0x0444                  _SPI3URDTLbits = 0x444
                    0x0446                  SPI3URDTH = 0x446
                    0x0446                  _SPI3URDTH = 0x446
                    0x0446                  _SPI3URDTHbits = 0x446
                    0x0464                  CLC1CONL = 0x464
                    0x0464                  _CLC1CONL = 0x464
                    0x0464                  _CLC1CONLbits = 0x464
                    0x0466                  CLC1CONH = 0x466
                    0x0466                  _CLC1CONH = 0x466
                    0x0466                  _CLC1CONHbits = 0x466
                    0x0468                  CLC1SEL = 0x468
                    0x0468                  _CLC1SEL = 0x468
                    0x0468                  _CLC1SELbits = 0x468
                    0x0468                  CLC1SELL = 0x468
                    0x0468                  _CLC1SELL = 0x468
                    0x0468                  _CLC1SELLbits = 0x468
                    0x046c                  CLC1GLSL = 0x46c
                    0x046c                  _CLC1GLSL = 0x46c
                    0x046c                  _CLC1GLSLbits = 0x46c
                    0x046e                  CLC1GLSH = 0x46e
                    0x046e                  _CLC1GLSH = 0x46e
                    0x046e                  _CLC1GLSHbits = 0x46e
                    0x0470                  CLC2CONL = 0x470
                    0x0470                  _CLC2CONL = 0x470
                    0x0470                  _CLC2CONLbits = 0x470
                    0x0472                  CLC2CONH = 0x472
                    0x0472                  _CLC2CONH = 0x472
                    0x0472                  _CLC2CONHbits = 0x472
                    0x0474                  CLC2SEL = 0x474
                    0x0474                  _CLC2SEL = 0x474
                    0x0474                  _CLC2SELbits = 0x474
                    0x0474                  CLC2SELL = 0x474
                    0x0474                  _CLC2SELL = 0x474
                    0x0474                  _CLC2SELLbits = 0x474
                    0x0478                  CLC2GLSL = 0x478
                    0x0478                  _CLC2GLSL = 0x478
                    0x0478                  _CLC2GLSLbits = 0x478
                    0x047a                  CLC2GLSH = 0x47a
                    0x047a                  _CLC2GLSH = 0x47a
                    0x047a                  _CLC2GLSHbits = 0x47a
                    0x0494                  I2C1RCV = 0x494
                    0x0494                  _I2C1RCV = 0x494
                    0x0494                  _I2C1RCVbits = 0x494
                    0x0496                  I2C1TRN = 0x496
                    0x0496                  _I2C1TRN = 0x496
                    0x0496                  _I2C1TRNbits = 0x496
                    0x0498                  I2C1BRG = 0x498
                    0x0498                  _I2C1BRG = 0x498
                    0x049a                  I2C1CON1 = 0x49a
                    0x049a                  _I2C1CON1 = 0x49a
                    0x049a                  _I2C1CON1bits = 0x49a
                    0x049a                  I2C1CONL = 0x49a
                    0x049a                  _I2C1CONL = 0x49a
                    0x049a                  _I2C1CONLbits = 0x49a
                    0x049c                  I2C1CON2 = 0x49c
                    0x049c                  _I2C1CON2 = 0x49c
                    0x049c                  _I2C1CON2bits = 0x49c
                    0x049c                  I2C1CONH = 0x49c
                    0x049c                  _I2C1CONH = 0x49c
                    0x049c                  _I2C1CONHbits = 0x49c
                    0x049e                  I2C1STAT = 0x49e
                    0x049e                  _I2C1STAT = 0x49e
                    0x049e                  _I2C1STATbits = 0x49e
                    0x04a0                  I2C1ADD = 0x4a0
                    0x04a0                  _I2C1ADD = 0x4a0
                    0x04a0                  _I2C1ADDbits = 0x4a0
                    0x04a2                  I2C1MSK = 0x4a2
                    0x04a2                  _I2C1MSK = 0x4a2
                    0x04a2                  _I2C1MSKbits = 0x4a2
                    0x04a4                  I2C2RCV = 0x4a4
                    0x04a4                  _I2C2RCV = 0x4a4
                    0x04a4                  _I2C2RCVbits = 0x4a4
                    0x04a6                  I2C2TRN = 0x4a6
                    0x04a6                  _I2C2TRN = 0x4a6
                    0x04a6                  _I2C2TRNbits = 0x4a6
                    0x04a8                  I2C2BRG = 0x4a8
                    0x04a8                  _I2C2BRG = 0x4a8
                    0x04aa                  I2C2CON1 = 0x4aa
                    0x04aa                  _I2C2CON1 = 0x4aa
                    0x04aa                  _I2C2CON1bits = 0x4aa
                    0x04aa                  I2C2CONL = 0x4aa
                    0x04aa                  _I2C2CONL = 0x4aa
                    0x04aa                  _I2C2CONLbits = 0x4aa
                    0x04ac                  I2C2CON2 = 0x4ac
                    0x04ac                  _I2C2CON2 = 0x4ac
                    0x04ac                  _I2C2CON2bits = 0x4ac
                    0x04ac                  I2C2CONH = 0x4ac
                    0x04ac                  _I2C2CONH = 0x4ac
                    0x04ac                  _I2C2CONHbits = 0x4ac
                    0x04ae                  I2C2STAT = 0x4ae
                    0x04ae                  _I2C2STAT = 0x4ae
                    0x04ae                  _I2C2STATbits = 0x4ae
                    0x04b0                  I2C2ADD = 0x4b0
                    0x04b0                  _I2C2ADD = 0x4b0
                    0x04b0                  _I2C2ADDbits = 0x4b0
                    0x04b2                  I2C2MSK = 0x4b2
                    0x04b2                  _I2C2MSK = 0x4b2
                    0x04b2                  _I2C2MSKbits = 0x4b2
                    0x04c4                  DMACON = 0x4c4
                    0x04c4                  _DMACON = 0x4c4
                    0x04c4                  _DMACONbits = 0x4c4
                    0x04c6                  DMABUF = 0x4c6
                    0x04c6                  _DMABUF = 0x4c6
                    0x04c8                  DMAL = 0x4c8
                    0x04c8                  _DMAL = 0x4c8
                    0x04ca                  DMAH = 0x4ca
                    0x04ca                  _DMAH = 0x4ca
                    0x04cc                  DMACH0 = 0x4cc
                    0x04cc                  _DMACH0 = 0x4cc
                    0x04cc                  _DMACH0bits = 0x4cc
                    0x04ce                  DMAINT0 = 0x4ce
                    0x04ce                  _DMAINT0 = 0x4ce
                    0x04ce                  _DMAINT0bits = 0x4ce
                    0x04d0                  DMASRC0 = 0x4d0
                    0x04d0                  _DMASRC0 = 0x4d0
                    0x04d2                  DMADST0 = 0x4d2
                    0x04d2                  _DMADST0 = 0x4d2
                    0x04d4                  DMACNT0 = 0x4d4
                    0x04d4                  _DMACNT0 = 0x4d4
                    0x04d6                  DMACH1 = 0x4d6
                    0x04d6                  _DMACH1 = 0x4d6
                    0x04d6                  _DMACH1bits = 0x4d6
                    0x04d8                  DMAINT1 = 0x4d8
                    0x04d8                  _DMAINT1 = 0x4d8
                    0x04d8                  _DMAINT1bits = 0x4d8
                    0x04da                  DMASRC1 = 0x4da
                    0x04da                  _DMASRC1 = 0x4da
                    0x04dc                  DMADST1 = 0x4dc
                    0x04dc                  _DMADST1 = 0x4dc
                    0x04de                  DMACNT1 = 0x4de
                    0x04de                  _DMACNT1 = 0x4de
                    0x04e0                  DMACH2 = 0x4e0
                    0x04e0                  _DMACH2 = 0x4e0
                    0x04e0                  _DMACH2bits = 0x4e0
                    0x04e2                  DMAINT2 = 0x4e2
                    0x04e2                  _DMAINT2 = 0x4e2
                    0x04e2                  _DMAINT2bits = 0x4e2
                    0x04e4                  DMASRC2 = 0x4e4
                    0x04e4                  _DMASRC2 = 0x4e4
                    0x04e6                  DMADST2 = 0x4e6
                    0x04e6                  _DMADST2 = 0x4e6
                    0x04e8                  DMACNT2 = 0x4e8
                    0x04e8                  _DMACNT2 = 0x4e8
                    0x04ea                  DMACH3 = 0x4ea
                    0x04ea                  _DMACH3 = 0x4ea
                    0x04ea                  _DMACH3bits = 0x4ea
                    0x04ec                  DMAINT3 = 0x4ec
                    0x04ec                  _DMAINT3 = 0x4ec
                    0x04ec                  _DMAINT3bits = 0x4ec
                    0x04ee                  DMASRC3 = 0x4ee
                    0x04ee                  _DMASRC3 = 0x4ee
                    0x04f0                  DMADST3 = 0x4f0
                    0x04f0                  _DMADST3 = 0x4f0
                    0x04f2                  DMACNT3 = 0x4f2
                    0x04f2                  _DMACNT3 = 0x4f2
                    0x04f4                  DMACH4 = 0x4f4
                    0x04f4                  _DMACH4 = 0x4f4
                    0x04f4                  _DMACH4bits = 0x4f4
                    0x04f6                  DMAINT4 = 0x4f6
                    0x04f6                  _DMAINT4 = 0x4f6
                    0x04f6                  _DMAINT4bits = 0x4f6
                    0x04f8                  DMASRC4 = 0x4f8
                    0x04f8                  _DMASRC4 = 0x4f8
                    0x04fa                  DMADST4 = 0x4fa
                    0x04fa                  _DMADST4 = 0x4fa
                    0x04fc                  DMACNT4 = 0x4fc
                    0x04fc                  _DMACNT4 = 0x4fc
                    0x04fe                  DMACH5 = 0x4fe
                    0x04fe                  _DMACH5 = 0x4fe
                    0x04fe                  _DMACH5bits = 0x4fe
                    0x0500                  DMAINT5 = 0x500
                    0x0500                  _DMAINT5 = 0x500
                    0x0500                  _DMAINT5bits = 0x500
                    0x0502                  DMASRC5 = 0x502
                    0x0502                  _DMASRC5 = 0x502
                    0x0504                  DMADST5 = 0x504
                    0x0504                  _DMADST5 = 0x504
                    0x0506                  DMACNT5 = 0x506
                    0x0506                  _DMACNT5 = 0x506
                    0x065e                  PADCON = 0x65e
                    0x065e                  _PADCON = 0x65e
                    0x065e                  _PADCONbits = 0x65e
                    0x0660                  IOCSTAT = 0x660
                    0x0660                  _IOCSTAT = 0x660
                    0x0660                  _IOCSTATbits = 0x660
                    0x0662                  TRISA = 0x662
                    0x0662                  _TRISA = 0x662
                    0x0662                  _TRISAbits = 0x662
                    0x0664                  PORTA = 0x664
                    0x0664                  _PORTA = 0x664
                    0x0664                  _PORTAbits = 0x664
                    0x0666                  LATA = 0x666
                    0x0666                  _LATA = 0x666
                    0x0666                  _LATAbits = 0x666
                    0x0668                  ODCA = 0x668
                    0x0668                  _ODCA = 0x668
                    0x0668                  _ODCAbits = 0x668
                    0x066a                  ANSA = 0x66a
                    0x066a                  _ANSA = 0x66a
                    0x066a                  _ANSAbits = 0x66a
                    0x066a                  ANSELA = 0x66a
                    0x066a                  _ANSELA = 0x66a
                    0x066a                  _ANSELAbits = 0x66a
                    0x066c                  IOCPA = 0x66c
                    0x066c                  _IOCPA = 0x66c
                    0x066c                  _IOCPAbits = 0x66c
                    0x066e                  IOCNA = 0x66e
                    0x066e                  _IOCNA = 0x66e
                    0x066e                  _IOCNAbits = 0x66e
                    0x0670                  IOCFA = 0x670
                    0x0670                  _IOCFA = 0x670
                    0x0670                  _IOCFAbits = 0x670
                    0x0672                  CNPUA = 0x672
                    0x0672                  _CNPUA = 0x672
                    0x0672                  _CNPUAbits = 0x672
                    0x0672                  IOCPUA = 0x672
                    0x0672                  _IOCPUA = 0x672
                    0x0672                  _IOCPUAbits = 0x672
                    0x0674                  CNPDA = 0x674
                    0x0674                  _CNPDA = 0x674
                    0x0674                  _CNPDAbits = 0x674
                    0x0674                  IOCPDA = 0x674
                    0x0674                  _IOCPDA = 0x674
                    0x0674                  _IOCPDAbits = 0x674
                    0x0676                  TRISB = 0x676
                    0x0676                  _TRISB = 0x676
                    0x0676                  _TRISBbits = 0x676
                    0x0678                  PORTB = 0x678
                    0x0678                  _PORTB = 0x678
                    0x0678                  _PORTBbits = 0x678
                    0x067a                  LATB = 0x67a
                    0x067a                  _LATB = 0x67a
                    0x067a                  _LATBbits = 0x67a
                    0x067c                  ODCB = 0x67c
                    0x067c                  _ODCB = 0x67c
                    0x067c                  _ODCBbits = 0x67c
                    0x067e                  ANSB = 0x67e
                    0x067e                  _ANSB = 0x67e
                    0x067e                  _ANSBbits = 0x67e
                    0x067e                  ANSELB = 0x67e
                    0x067e                  _ANSELB = 0x67e
                    0x067e                  _ANSELBbits = 0x67e
                    0x0680                  IOCPB = 0x680
                    0x0680                  _IOCPB = 0x680
                    0x0680                  _IOCPBbits = 0x680
                    0x0682                  IOCNB = 0x682
                    0x0682                  _IOCNB = 0x682
                    0x0682                  _IOCNBbits = 0x682
                    0x0684                  IOCFB = 0x684
                    0x0684                  _IOCFB = 0x684
                    0x0684                  _IOCFBbits = 0x684
                    0x0686                  CNPUB = 0x686
                    0x0686                  _CNPUB = 0x686
                    0x0686                  _CNPUBbits = 0x686
                    0x0686                  IOCPUB = 0x686
                    0x0686                  _IOCPUB = 0x686
                    0x0686                  _IOCPUBbits = 0x686
                    0x0688                  CNPDB = 0x688
                    0x0688                  _CNPDB = 0x688
                    0x0688                  _CNPDBbits = 0x688
                    0x0688                  IOCPDB = 0x688
                    0x0688                  _IOCPDB = 0x688
                    0x0688                  _IOCPDBbits = 0x688
                    0x0712                  ADC1BUF0 = 0x712
                    0x0712                  _ADC1BUF0 = 0x712
                    0x0714                  ADC1BUF1 = 0x714
                    0x0714                  _ADC1BUF1 = 0x714
                    0x0716                  ADC1BUF2 = 0x716
                    0x0716                  _ADC1BUF2 = 0x716
                    0x0718                  ADC1BUF3 = 0x718
                    0x0718                  _ADC1BUF3 = 0x718
                    0x071a                  ADC1BUF4 = 0x71a
                    0x071a                  _ADC1BUF4 = 0x71a
                    0x071c                  ADC1BUF5 = 0x71c
                    0x071c                  _ADC1BUF5 = 0x71c
                    0x071e                  ADC1BUF6 = 0x71e
                    0x071e                  _ADC1BUF6 = 0x71e
                    0x0720                  ADC1BUF7 = 0x720
                    0x0720                  _ADC1BUF7 = 0x720
                    0x0722                  ADC1BUF8 = 0x722
                    0x0722                  _ADC1BUF8 = 0x722
                    0x0724                  ADC1BUF9 = 0x724
                    0x0724                  _ADC1BUF9 = 0x724
                    0x0726                  ADC1BUF10 = 0x726
                    0x0726                  _ADC1BUF10 = 0x726
                    0x0728                  ADC1BUF11 = 0x728
                    0x0728                  _ADC1BUF11 = 0x728
                    0x072a                  ADC1BUF12 = 0x72a
                    0x072a                  _ADC1BUF12 = 0x72a
                    0x072c                  ADC1BUF13 = 0x72c
                    0x072c                  _ADC1BUF13 = 0x72c
                    0x072e                  ADC1BUF14 = 0x72e
                    0x072e                  _ADC1BUF14 = 0x72e
                    0x0730                  ADC1BUF15 = 0x730
                    0x0730                  _ADC1BUF15 = 0x730
                    0x0746                  AD1CON1 = 0x746
                    0x0746                  _AD1CON1 = 0x746
                    0x0746                  _AD1CON1bits = 0x746
                    0x0748                  AD1CON2 = 0x748
                    0x0748                  _AD1CON2 = 0x748
                    0x0748                  _AD1CON2bits = 0x748
                    0x074a                  AD1CON3 = 0x74a
                    0x074a                  _AD1CON3 = 0x74a
                    0x074a                  _AD1CON3bits = 0x74a
                    0x074c                  AD1CHS = 0x74c
                    0x074c                  _AD1CHS = 0x74c
                    0x074c                  _AD1CHSbits = 0x74c
                    0x074c                  AD1CHS0 = 0x74c
                    0x074c                  _AD1CHS0 = 0x74c
                    0x074c                  _AD1CHS0bits = 0x74c
                    0x074e                  AD1CSSH = 0x74e
                    0x074e                  _AD1CSSH = 0x74e
                    0x074e                  _AD1CSSHbits = 0x74e
                    0x0750                  AD1CSSL = 0x750
                    0x0750                  _AD1CSSL = 0x750
                    0x0750                  _AD1CSSLbits = 0x750
                    0x0752                  AD1CON4 = 0x752
                    0x0752                  _AD1CON4 = 0x752
                    0x0752                  _AD1CON4bits = 0x752
                    0x0754                  AD1CON5 = 0x754
                    0x0754                  _AD1CON5 = 0x754
                    0x0754                  _AD1CON5bits = 0x754
                    0x0758                  AD1CHITL = 0x758
                    0x0758                  _AD1CHITL = 0x758
                    0x0758                  _AD1CHITLbits = 0x758
                    0x075a                  AD1CTMENH = 0x75a
                    0x075a                  _AD1CTMENH = 0x75a
                    0x075a                  _AD1CTMENHbits = 0x75a
                    0x075c                  AD1CTMENL = 0x75c
                    0x075c                  _AD1CTMENL = 0x75c
                    0x075c                  _AD1CTMENLbits = 0x75c
                    0x075e                  AD1RESDMA = 0x75e
                    0x075e                  _AD1RESDMA = 0x75e
                    0x075e                  _AD1RESDMAbits = 0x75e
                    0x0760                  NVMCON = 0x760
                    0x0760                  _NVMCON = 0x760
                    0x0760                  _NVMCONbits = 0x760
                    0x0762                  NVMADR = 0x762
                    0x0762                  _NVMADR = 0x762
                    0x0762                  _NVMADRbits = 0x762
                    0x0762                  NVMADRL = 0x762
                    0x0762                  _NVMADRL = 0x762
                    0x0762                  _NVMADRLbits = 0x762
                    0x0764                  NVMADRH = 0x764
                    0x0764                  _NVMADRH = 0x764
                    0x0764                  _NVMADRHbits = 0x764
                    0x0764                  NVMADRU = 0x764
                    0x0764                  _NVMADRU = 0x764
                    0x0764                  _NVMADRUbits = 0x764
                    0x0766                  NVMKEY = 0x766
                    0x0766                  _NVMKEY = 0x766
                    0x0790                  RPINR0 = 0x790
                    0x0790                  _RPINR0 = 0x790
                    0x0790                  _RPINR0bits = 0x790
                    0x0792                  RPINR1 = 0x792
                    0x0792                  _RPINR1 = 0x792
                    0x0792                  _RPINR1bits = 0x792
                    0x0794                  RPINR2 = 0x794
                    0x0794                  _RPINR2 = 0x794
                    0x0794                  _RPINR2bits = 0x794
                    0x0796                  RPINR3 = 0x796
                    0x0796                  _RPINR3 = 0x796
                    0x0796                  _RPINR3bits = 0x796
                    0x079a                  RPINR5 = 0x79a
                    0x079a                  _RPINR5 = 0x79a
                    0x079a                  _RPINR5bits = 0x79a
                    0x079c                  RPINR6 = 0x79c
                    0x079c                  _RPINR6 = 0x79c
                    0x079c                  _RPINR6bits = 0x79c
                    0x079e                  RPINR7 = 0x79e
                    0x079e                  _RPINR7 = 0x79e
                    0x079e                  _RPINR7bits = 0x79e
                    0x07a0                  RPINR8 = 0x7a0
                    0x07a0                  _RPINR8 = 0x7a0
                    0x07a0                  _RPINR8bits = 0x7a0
                    0x07a6                  RPINR11 = 0x7a6
                    0x07a6                  _RPINR11 = 0x7a6
                    0x07a6                  _RPINR11bits = 0x7a6
                    0x07a8                  RPINR12 = 0x7a8
                    0x07a8                  _RPINR12 = 0x7a8
                    0x07a8                  _RPINR12bits = 0x7a8
                    0x07b4                  RPINR18 = 0x7b4
                    0x07b4                  _RPINR18 = 0x7b4
                    0x07b4                  _RPINR18bits = 0x7b4
                    0x07b6                  RPINR19 = 0x7b6
                    0x07b6                  _RPINR19 = 0x7b6
                    0x07b6                  _RPINR19bits = 0x7b6
                    0x07b8                  RPINR20 = 0x7b8
                    0x07b8                  _RPINR20 = 0x7b8
                    0x07b8                  _RPINR20bits = 0x7b8
                    0x07ba                  RPINR21 = 0x7ba
                    0x07ba                  _RPINR21 = 0x7ba
                    0x07ba                  _RPINR21bits = 0x7ba
                    0x07bc                  RPINR22 = 0x7bc
                    0x07bc                  _RPINR22 = 0x7bc
                    0x07bc                  _RPINR22bits = 0x7bc
                    0x07be                  RPINR23 = 0x7be
                    0x07be                  _RPINR23 = 0x7be
                    0x07be                  _RPINR23bits = 0x7be
                    0x07c2                  RPINR25 = 0x7c2
                    0x07c2                  _RPINR25 = 0x7c2
                    0x07c2                  _RPINR25bits = 0x7c2
                    0x07c8                  RPINR28 = 0x7c8
                    0x07c8                  _RPINR28 = 0x7c8
                    0x07c8                  _RPINR28bits = 0x7c8
                    0x07ca                  RPINR29 = 0x7ca
                    0x07ca                  _RPINR29 = 0x7ca
                    0x07ca                  _RPINR29bits = 0x7ca
                    0x07d4                  RPOR0 = 0x7d4
                    0x07d4                  _RPOR0 = 0x7d4
                    0x07d4                  _RPOR0bits = 0x7d4
                    0x07d6                  RPOR1 = 0x7d6
                    0x07d6                  _RPOR1 = 0x7d6
                    0x07d6                  _RPOR1bits = 0x7d6
                    0x07d8                  RPOR2 = 0x7d8
                    0x07d8                  _RPOR2 = 0x7d8
                    0x07d8                  _RPOR2bits = 0x7d8
                    0x07da                  RPOR3 = 0x7da
                    0x07da                  _RPOR3 = 0x7da
                    0x07da                  _RPOR3bits = 0x7da
                    0x07dc                  RPOR4 = 0x7dc
                    0x07dc                  _RPOR4 = 0x7dc
                    0x07dc                  _RPOR4bits = 0x7dc
                    0x07de                  RPOR5 = 0x7de
                    0x07de                  _RPOR5 = 0x7de
                    0x07de                  _RPOR5bits = 0x7de
                    0x07e0                  RPOR6 = 0x7e0
                    0x07e0                  _RPOR6 = 0x7e0
                    0x07e0                  _RPOR6bits = 0x7e0
                    0x07e2                  RPOR7 = 0x7e2
                    0x07e2                  _RPOR7 = 0x7e2
                    0x07e2                  _RPOR7bits = 0x7e2
                    0x07e4                  RPOR8 = 0x7e4
                    0x07e4                  _RPOR8 = 0x7e4
                    0x07e4                  _RPOR8bits = 0x7e4
                    0x07ec                  RPOR12 = 0x7ec
                    0x07ec                  _RPOR12 = 0x7ec
                    0x07ec                  _RPOR12bits = 0x7ec
                    0x07ee                  RPOR13 = 0x7ee
                    0x07ee                  _RPOR13 = 0x7ee
                    0x07ee                  _RPOR13bits = 0x7ee
                    0x0204                  IC1 = 0x204
                    0x0204                  _IC1 = 0x204
                    0x020c                  IC2 = 0x20c
                    0x020c                  _IC2 = 0x20c
                    0x0214                  IC3 = 0x214
                    0x0214                  _IC3 = 0x214
                    0x0234                  OC1 = 0x234
                    0x0234                  _OC1 = 0x234
                    0x023e                  OC2 = 0x23e
                    0x023e                  _OC2 = 0x23e
                    0x0248                  OC3 = 0x248
                    0x0248                  _OC3 = 0x248
                    0x0398                  UART1 = 0x398
                    0x0398                  _UART1 = 0x398
                    0x03ae                  UART2 = 0x3ae
                    0x03ae                  _UART2 = 0x3ae
START GROUP
LOAD c:/program files/microchip/xc16/v1.70/bin/bin/../../lib\liblega-pic30-elf.a
LOAD c:/program files/microchip/xc16/v1.70/bin/bin/../../lib\libm-elf.a
LOAD c:/program files/microchip/xc16/v1.70/bin/bin/../../lib\liblega-c-elf.a
END GROUP
OUTPUT(dist/default/debug/SerialWombat18A_18B.X.debug.elf elf32-pic30)
LOAD /CW/_FSEC
LOAD jump_table
LOAD default_isr
LOAD data_init
LOAD fill0

.debug_pubtypes
                  0x000540       0x2f43
 .debug_pubtypes
                  0x000540         0x4c build/default/debug/pic24fj256ga702/mcc_generated_files/clock.o
 .debug_pubtypes
                  0x00058c         0xe0 build/default/debug/pic24fj256ga702/mcc_generated_files/crc.o
 .debug_pubtypes
                  0x00066c         0x1f build/default/debug/pic24fj256ga702/mcc_generated_files/cvr.o
 .debug_pubtypes
                  0x00068b        0x25c build/default/debug/pic24fj256ga702/mcc_generated_files/dma.o
 .debug_pubtypes
                  0x0008e7        0x13e build/default/debug/pic24fj256ga702/mcc_generated_files/i2c1.o
 .debug_pubtypes
                  0x000a25        0x116 build/default/debug/pic24fj256ga702/mcc_generated_files/i2c2.o
 .debug_pubtypes
                  0x000b3b         0x3c build/default/debug/pic24fj256ga702/mcc_generated_files/interrupt_manager.o
 .debug_pubtypes
                  0x000b77         0x12 build/default/debug/pic24fj256ga702/mcc_generated_files/mcc.o
 .debug_pubtypes
                  0x000b89         0x1f build/default/debug/pic24fj256ga702/mcc_generated_files/pin_manager.o
 .debug_pubtypes
                  0x000ba8         0xc6 build/default/debug/pic24fj256ga702/mcc_generated_files/system.o
 .debug_pubtypes
                  0x000c6e         0xa4 build/default/debug/pic24fj256ga702/mcc_generated_files/tmr1.o
 .debug_pubtypes
                  0x000d12         0xb1 build/default/debug/pic24fj256ga702/mcc_generated_files/tmr2.o
 .debug_pubtypes
                  0x000dc3         0x87 build/default/debug/pic24fj256ga702/mcc_generated_files/tmr3.o
 .debug_pubtypes
                  0x000e4a         0x71 build/default/debug/pic24fj256ga702/mcc_generated_files/traps.o
 .debug_pubtypes
                  0x000ebb        0x10f build/default/debug/pic24fj256ga702/mcc_generated_files/uart1.o
 .debug_pubtypes
                  0x000fca        0x102 build/default/debug/pic24fj256ga702/mcc_generated_files/uart2.o
 .debug_pubtypes
                  0x0010cc        0x141 build/default/debug/pic24fj256ga702/mcc_generated_files/adc1.o
 .debug_pubtypes
                  0x00120d        0x13e build/default/debug/pic24fj256ga702/mcc_generated_files/i2c2Controller.o
 .debug_pubtypes
                  0x00134b        0x144 build/default/debug/pic24fj256ga702/pinDigitalHwSpecific.o
 .debug_pubtypes
                  0x00148f         0xb6 build/default/debug/pic24fj256ga702/updatePulse.o
 .debug_pubtypes
                  0x001545        0x347 build/default/debug/timingResource.o
 .debug_pubtypes
                  0x00188c         0xac build/default/debug/quadEnc.o
 .debug_pubtypes
                  0x001938         0xf3 build/default/debug/analogInput.o
 .debug_pubtypes
                  0x001a2b         0xf1 build/default/debug/pulseTimer.o
 .debug_pubtypes
                  0x001b1c         0xa2 build/default/debug/debounce.o
 .debug_pubtypes
                  0x001bbe         0xb0 build/default/debug/protectedOutput.o
 .debug_pubtypes
                  0x001c6e         0xa2 build/default/debug/watchdog.o
 .debug_pubtypes
                  0x001d10         0xab build/default/debug/TM1637.o
 .debug_pubtypes
                  0x001dbb         0xed build/default/debug/ws2812.o
 .debug_pubtypes
                  0x001ea8        0x195 build/default/debug/touch.o
 .debug_pubtypes
                  0x00203d         0xe4 build/default/debug/uartHw.o
 .debug_pubtypes
                  0x002121         0xe8 build/default/debug/servo.o
 .debug_pubtypes
                  0x002209         0xe1 build/default/debug/pwm.o
 .debug_pubtypes
                  0x0022ea         0x74 build/default/debug/outputScale.o
 .debug_pubtypes
                  0x00235e        0x11e build/default/debug/resistanceInput.o
 .debug_pubtypes
                  0x00247c         0xda build/default/debug/uartSw.o
 .debug_pubtypes
                  0x002556         0xc3 build/default/debug/throughputConsumer.o
 .debug_pubtypes
                  0x002619         0xc9 build/default/debug/matrixKeypad.o
 .debug_pubtypes
                  0x0026e2         0x76 build/default/debug/inputProcess.o
 .debug_pubtypes
                  0x002758         0xf8 build/default/debug/pinInputProcessor.o
 .debug_pubtypes
                  0x002850         0xcc build/default/debug/pulseOnChange.o
 .debug_pubtypes
                  0x00291c         0xe9 build/default/debug/hfServo.o
 .debug_pubtypes
                  0x002a05        0x101 build/default/debug/ultrasonicDistance.o
 .debug_pubtypes
                  0x002b06         0x98 build/default/debug/liquidCrystal.o
 .debug_pubtypes
                  0x002b9e         0xb6 build/default/debug/HSClock.o
 .debug_pubtypes
                  0x002c54         0xef build/default/debug/HSCounter.o
 .debug_pubtypes
                  0x002d43         0xca build/default/debug/PS2Keyboard.o
 .debug_pubtypes
                  0x002e0d         0x84 build/default/debug/i2cController.o
 .debug_pubtypes
                  0x002e91        0x1cf build/default/debug/vga.o
 .debug_pubtypes
                  0x003060         0xb4 build/default/debug/main.o
 .debug_pubtypes
                  0x003114        0x262 build/default/debug/protocol.o
 .debug_pubtypes
                  0x003376         0x2b build/default/debug/asciiConversion.o
 .debug_pubtypes
                  0x0033a1         0x91 build/default/debug/pinRegisters.o
 .debug_pubtypes
                  0x003432         0x51 build/default/debug/queue.o

__c30_signature
                  0x003483        0x17a
 __c30_signature
                  0x003483          0x6 build/default/debug/pic24fj256ga702/mcc_generated_files/clock.o
 __c30_signature
                  0x003489          0x6 build/default/debug/pic24fj256ga702/mcc_generated_files/crc.o
 __c30_signature
                  0x00348f          0x6 build/default/debug/pic24fj256ga702/mcc_generated_files/cvr.o
 __c30_signature
                  0x003495          0x6 build/default/debug/pic24fj256ga702/mcc_generated_files/dma.o
 __c30_signature
                  0x00349b          0x6 build/default/debug/pic24fj256ga702/mcc_generated_files/i2c1.o
 __c30_signature
                  0x0034a1          0x6 build/default/debug/pic24fj256ga702/mcc_generated_files/i2c2.o
 __c30_signature
                  0x0034a7          0x6 build/default/debug/pic24fj256ga702/mcc_generated_files/interrupt_manager.o
 __c30_signature
                  0x0034ad          0x6 build/default/debug/pic24fj256ga702/mcc_generated_files/mcc.o
 __c30_signature
                  0x0034b3          0x6 build/default/debug/pic24fj256ga702/mcc_generated_files/pin_manager.o
 __c30_signature
                  0x0034b9          0x6 build/default/debug/pic24fj256ga702/mcc_generated_files/system.o
 __c30_signature
                  0x0034bf          0x6 build/default/debug/pic24fj256ga702/mcc_generated_files/tmr1.o
 __c30_signature
                  0x0034c5          0x6 build/default/debug/pic24fj256ga702/mcc_generated_files/tmr2.o
 __c30_signature
                  0x0034cb          0x6 build/default/debug/pic24fj256ga702/mcc_generated_files/tmr3.o
 __c30_signature
                  0x0034d1          0x6 build/default/debug/pic24fj256ga702/mcc_generated_files/traps.o
 __c30_signature
                  0x0034d7          0x6 build/default/debug/pic24fj256ga702/mcc_generated_files/uart1.o
 __c30_signature
                  0x0034dd          0x6 build/default/debug/pic24fj256ga702/mcc_generated_files/uart2.o
 __c30_signature
                  0x0034e3          0x6 build/default/debug/pic24fj256ga702/mcc_generated_files/adc1.o
 __c30_signature
                  0x0034e9          0x6 build/default/debug/pic24fj256ga702/mcc_generated_files/i2c2Controller.o
 __c30_signature
                  0x0034ef          0x6 build/default/debug/pic24fj256ga702/pinDigitalHwSpecific.o
 __c30_signature
                  0x0034f5          0x6 build/default/debug/pic24fj256ga702/updatePulse.o
 __c30_signature
                  0x0034fb          0x6 build/default/debug/timingResource.o
 __c30_signature
                  0x003501          0x6 build/default/debug/quadEnc.o
 __c30_signature
                  0x003507          0x6 build/default/debug/analogInput.o
 __c30_signature
                  0x00350d          0x6 build/default/debug/pulseTimer.o
 __c30_signature
                  0x003513          0x6 build/default/debug/debounce.o
 __c30_signature
                  0x003519          0x6 build/default/debug/protectedOutput.o
 __c30_signature
                  0x00351f          0x6 build/default/debug/watchdog.o
 __c30_signature
                  0x003525          0x6 build/default/debug/TM1637.o
 __c30_signature
                  0x00352b          0x6 build/default/debug/ws2812.o
 __c30_signature
                  0x003531          0x6 build/default/debug/touch.o
 __c30_signature
                  0x003537          0x6 build/default/debug/uartHw.o
 __c30_signature
                  0x00353d          0x6 build/default/debug/servo.o
 __c30_signature
                  0x003543          0x6 build/default/debug/pwm.o
 __c30_signature
                  0x003549          0x6 build/default/debug/outputScale.o
 __c30_signature
                  0x00354f          0x6 build/default/debug/resistanceInput.o
 __c30_signature
                  0x003555          0x6 build/default/debug/uartSw.o
 __c30_signature
                  0x00355b          0x6 build/default/debug/throughputConsumer.o
 __c30_signature
                  0x003561          0x6 build/default/debug/matrixKeypad.o
 __c30_signature
                  0x003567          0x6 build/default/debug/inputProcess.o
 __c30_signature
                  0x00356d          0x6 build/default/debug/pinInputProcessor.o
 __c30_signature
                  0x003573          0x6 build/default/debug/pulseOnChange.o
 __c30_signature
                  0x003579          0x6 build/default/debug/hfServo.o
 __c30_signature
                  0x00357f          0x6 build/default/debug/ultrasonicDistance.o
 __c30_signature
                  0x003585          0x6 build/default/debug/liquidCrystal.o
 __c30_signature
                  0x00358b          0x6 build/default/debug/HSClock.o
 __c30_signature
                  0x003591          0x6 build/default/debug/HSCounter.o
 __c30_signature
                  0x003597          0x6 build/default/debug/PS2Keyboard.o
 __c30_signature
                  0x00359d          0x6 build/default/debug/i2cController.o
 __c30_signature
                  0x0035a3          0x6 build/default/debug/vga.o
 __c30_signature
                  0x0035a9          0x6 build/default/debug/main.o
 __c30_signature
                  0x0035af          0x6 build/default/debug/protocol.o
 __c30_signature
                  0x0035b5          0x6 build/default/debug/asciiConversion.o
 __c30_signature
                  0x0035bb          0x6 build/default/debug/pinRegisters.o
 __c30_signature
                  0x0035c1          0x6 build/default/debug/queue.o
 __c30_signature
                  0x0035c7          0x6 c:/program files/microchip/xc16/v1.70/bin/bin/../../lib\liblega-pic30-elf.a(crt0_extended24.o)
 __c30_signature
                  0x0035cd          0x6 c:/program files/microchip/xc16/v1.70/bin/bin/../../lib\liblega-pic30-elf.a(data_init_24.o)
 __c30_signature
                  0x0035d3          0x6 c:/program files/microchip/xc16/v1.70/bin/bin/../../lib\liblega-pic30-elf.a(delay32da.Leo)
 __c30_signature
                  0x0035d9          0x6 c:/program files/microchip/xc16/v1.70/bin/bin/../../lib\libm-elf.a(divsi3.daeo)
 __c30_signature
                  0x0035df          0x6 c:/program files/microchip/xc16/v1.70/bin/bin/../../lib\libm-elf.a(udivsi3.daeo)
 __c30_signature
                  0x0035e5          0x6 c:/program files/microchip/xc16/v1.70/bin/bin/../../lib\libm-elf.a(divmoddi3.daeo)
 __c30_signature
                  0x0035eb          0x6 c:/program files/microchip/xc16/v1.70/bin/bin/../../lib\libm-elf.a(muldi3.daeo)
 __c30_signature
                  0x0035f1          0x6 c:/program files/microchip/xc16/v1.70/bin/bin/../../lib\libm-elf.a(umuldi3.daeo)
 __c30_signature
                  0x0035f7          0x6 c:/program files/microchip/xc16/v1.70/bin/bin/../../lib\liblega-c-elf.a(memcpy.DA_eo)

.nbss               0x0850         0x8a
 .nbss              0x0850         0x18 build/default/debug/protocol.o
                    0x0850                  _debug_discarded_bytes
                    0x0854                  _UART2ndInterface
                    0x0855                  _UartRxbufferCounter
                    0x0856                  _UartTxbufferCounter
                    0x0857                  _LineBreaksAndEcho
                    0x0858                  _ResponsePending
                    0x0859                  _ResponseAvailable
                    0x085a                  _TX_ClockStretching
                    0x085b                  _RX_ClockStretching
                    0x085c                  _testSequenceNumber
                    0x085d                  _testSequenceArmed
                    0x085e                  _protocolCapturingPackets
                    0x0860                  _protocolCapturedPackets
                    0x0862                  _crcResultCRCCCITT
                    0x0864                  _Errors
                    0x0866                  _PacketsProcessed
 .nbss              0x0868         0x16 build/default/debug/pic24fj256ga702/mcc_generated_files/i2c1.o
 .nbss              0x087e         0x16 build/default/debug/pic24fj256ga702/mcc_generated_files/i2c2Controller.o
 .nbss              0x0894         0x12 build/default/debug/pic24fj256ga702/mcc_generated_files/i2c2.o
                    0x0894                  _DebugLastPoint
                    0x0895                  _wombatI2CRxDataCount
                    0x0896                  _wombatI2CTxDataCount
                    0x0897                  _nextInterruptAddress
                    0x0898                  _discardI2CData
                    0x089a                  _I2CInterruptCount
                    0x089e                  _i2cHealthMonitorSuspicionSCL
                    0x08a0                  _i2cHealthMonitorSuspicionSDA
                    0x08a2                  _i2c2_periph_state
 .nbss              0x08a6         0x10 build/default/debug/main.o
                    0x08a6                  _RunForeground
                    0x08a8                  _OverflowFrames
                    0x08aa                  _FramesRun
                    0x08ae                  _SystemUtilizationCount
                    0x08b0                  _SystemUtilizationSum
                    0x08b4                  _CurrentPin
 .nbss              0x08b6          0xe build/default/debug/timingResource.o
                    0x08b6                  _CCT1InterruptCount
                    0x08b8                  _CCT2InterruptCount
                    0x08ba                  _CCT3InterruptCount
                    0x08bc                  _CCT4InterruptCount
                    0x08be                  _OC1InterruptCount
                    0x08c0                  _OC2InterruptCount
                    0x08c2                  _OC3InterruptCount
 .nbss              0x08c4          0xe build/default/debug/vga.o
                    0x08c4                  _vgaEnable
                    0x08c6                  _vgaNextLine
                    0x08c8                  _vgaFrameBuffer
                    0x08ca                  _vgaLineCopy
                    0x08cb                  _vgaDisplayLine
                    0x08cc                  _vgaBufferAddress
                    0x08ce                  _vgaZeroBuffer
                    0x08d0                  _vgaColorBufferAddress
 .nbss              0x08d2          0x8 build/default/debug/pic24fj256ga702/mcc_generated_files/tmr2.o
                    0x08d2                  _TMR2_InterruptHandler
                    0x08d4                  _FramesDropped
                    0x08d6                  _System1msCount

.ndata              0x08da          0x8
 .ndata             0x08da          0x8 build/default/debug/pic24fj256ga702/pinDigitalHwSpecific.o
                    0x08da                  _ADC1Semaphore
                    0x08db                  _DMA5Semaphore
                    0x08dc                  _SPI1Semaphore
                    0x08dd                  _TMR1Semaphore
                    0x08de                  _TMR3Semaphore
                    0x08df                  _UART1Semaphore
                    0x08e0                  _UART2Semaphore

.nbss               0x08e2          0x6
 .nbss              0x08e2          0x6 build/default/debug/pic24fj256ga702/mcc_generated_files/uart1.o
                    0x08e2                  _lastRXInterruptByte
                    0x08e4                  _TotalRxBytes

.ndata              0x08e8         0x10
 .ndata             0x08e8          0x6 build/default/debug/pic24fj256ga702/mcc_generated_files/adc1.o
                    0x08e8                  _VbgCalibration
                    0x08ea                  _CTMUTrim
                    0x08ec                  _TemperatureCache
 .ndata             0x08ee          0x6 build/default/debug/protocol.o
                    0x08ee                  _SW_I2CAddress
                    0x08f0                  _lastUserBufferIndex
                    0x08f2                  _lastQueueIndex
 .ndata             0x08f4          0x4 build/default/debug/pic24fj256ga702/mcc_generated_files/i2c2.o
                    0x08f4                  _lastI2CInterruptCount

.nbss               0x08f8          0x4
 .nbss              0x08f8          0x4 build/default/debug/pic24fj256ga702/mcc_generated_files/adc1.o
                    0x08f8                  _adc_i

.ndata              0x08fc          0x4
 .ndata             0x08fc          0x4 build/default/debug/main.o
                    0x08fc                  _FrameTimingPin
                    0x08fe                  _SystemUtilizationAverage

.nbss               0x0900          0x4
 .nbss              0x0900          0x4 build/default/debug/pinRegisters.o
                    0x0900                  _incrementingValue
                    0x0902                  _CurrentPinRegister

.ndata              0x0904          0x4
 .ndata             0x0904          0x4 build/default/debug/pinRegisters.o
                    0x0904                  _lfsrSeed

.nbss               0x0908          0x4
 .nbss              0x0908          0x4 build/default/debug/queue.o
                    0x0908                  _QueueOverflowCounter
                    0x090a                  _QueueUnderflowCounter

.nbss               0x0828          0x2
 .nbss              0x0828          0x2 build/default/debug/pic24fj256ga702/mcc_generated_files/tmr1.o
                    0x0828                  _TMR1_InterruptHandler

.nbss               0x090c          0x2
 .nbss              0x090c          0x2 build/default/debug/pic24fj256ga702/mcc_generated_files/tmr3.o
                    0x090c                  _TMR3_InterruptHandler

.ndata              0x090e          0x2
 .ndata             0x090e          0x2 build/default/debug/pic24fj256ga702/mcc_generated_files/traps.o

.nbss               0x0910         0x22
 .nbss              0x0910          0x2 build/default/debug/quadEnc.o
                    0x0910                  _debugQuadEnc
 .nbss              0x0912          0x2 build/default/debug/analogInput.o
                    0x0912                  _debugAnalog
 .nbss              0x0914          0x2 build/default/debug/pulseTimer.o
                    0x0914                  _debugPulseTimer
 .nbss              0x0916          0x2 build/default/debug/TM1637.o
                    0x0916                  _debugTM1637
 .nbss              0x0918          0x2 build/default/debug/ws2812.o
                    0x0918                  _debugWS2812
 .nbss              0x091a          0x2 build/default/debug/touch.o
                    0x091a                  _debugTouch
 .nbss              0x091c          0x2 build/default/debug/outputScale.o
                    0x091c                  _debugOutputScale
 .nbss              0x091e          0x2 build/default/debug/resistanceInput.o
                    0x091e                  _debugResistance
 .nbss              0x0920          0x2 build/default/debug/uartSw.o
                    0x0920                  _debuguartSw
 .nbss              0x0922          0x2 build/default/debug/matrixKeypad.o
                    0x0922                  _debugMatrixKeypad
 .nbss              0x0924          0x2 build/default/debug/inputProcess.o
                    0x0924                  _debugInputProcess
 .nbss              0x0926          0x2 build/default/debug/pinInputProcessor.o
                    0x0926                  _debugPinInputProcessor
 .nbss              0x0928          0x2 build/default/debug/pulseOnChange.o
                    0x0928                  _debugPulseOnChange
 .nbss              0x092a          0x2 build/default/debug/ultrasonicDistance.o
                    0x092a                  _debugUltrasonicDistance
 .nbss              0x092c          0x2 build/default/debug/liquidCrystal.o
                    0x092c                  _debugLiquidCrystal
 .nbss              0x092e          0x2 build/default/debug/HSCounter.o
                    0x092e                  _debugHSCounter
 .nbss              0x0930          0x2 build/default/debug/PS2Keyboard.o
                    0x0930                  _debugKeyboard

.ndata              0x0932          0x2
 .ndata             0x0932          0x2 build/default/debug/vga.o
                    0x0932                  _vgaNextColor

.bss                0x0934       0x2c32
 .bss               0x0934       0x2000 build/default/debug/main.o
                    0x0934                  _UserBuffer
 .bss               0x2934        0x5a0 build/default/debug/pinRegisters.o
                    0x2934                  _PinUpdateRegisters
 .bss               0x2ed4        0x400 build/default/debug/pic24fj256ga702/pinDigitalHwSpecific.o
                    0x2ed4                  _OutputArrayA
                    0x2fd4                  _OutputArrayB
                    0x30d4                  _InputArrayA
                    0x31d4                  _InputArrayB
 .bss               0x32d4         0xca build/default/debug/pic24fj256ga702/mcc_generated_files/uart1.o
                    0x32d4                  _uart1_obj
 .bss               0x339e         0xca build/default/debug/pic24fj256ga702/mcc_generated_files/uart2.o
 .bss               0x3468         0x70 build/default/debug/timingResource.o
                    0x3468                  _timingResources
 .bss               0x34d8         0x6e build/default/debug/protocol.o
                    0x34d8                  _Rxbuffer
                    0x34e0                  _Txbuffer
                    0x34e8                  _lastErrorPacket
                    0x34f0                  _PinRegisterCopyBuffer
                    0x3538                  _TimingResourceManagerCopyBuffer
 .bss               0x3546         0x20 build/default/debug/pic24fj256ga702/mcc_generated_files/traps.o

.data               0x3566         0x18
 .data              0x3566         0x18 build/default/debug/ws2812.o
                    0x3566                  _ColorTable

.bss                0x357e         0x42
 .bss               0x357e         0x12 build/default/debug/pic24fj256ga702/mcc_generated_files/i2c1.o
 .bss               0x3590         0x12 build/default/debug/pic24fj256ga702/mcc_generated_files/i2c2Controller.o
 .bss               0x35a2         0x10 build/default/debug/pic24fj256ga702/mcc_generated_files/i2c2.o
                    0x35a2                  _wombatI2CRxData
                    0x35aa                  _wombatI2CTxData
 .bss               0x35b2          0xe build/default/debug/pic24fj256ga702/mcc_generated_files/crc.o

.data               0x35c0          0x4
 .data              0x35c0          0x4 build/default/debug/pic24fj256ga702/mcc_generated_files/memory/flash.o
                    0x35c0                  _FlashKey

.bss                0x35c4          0x6
 .bss               0x35c4          0x2 build/default/debug/pic24fj256ga702/mcc_generated_files/tmr1.o
 .bss               0x35c6          0x2 build/default/debug/pic24fj256ga702/mcc_generated_files/tmr2.o
 .bss               0x35c8          0x2 build/default/debug/pic24fj256ga702/mcc_generated_files/tmr3.o

fill$.0           0x027000        0x802
 fill$.0          0x027000        0x802 fill0

.config_ALTI2C1
                  0x02af2c          0x2
 .config_ALTI2C1
                  0x02af2c          0x2 build/default/debug/pic24fj256ga702/mcc_generated_files/mcc.o

.config_JTAGEN    0x02af28          0x2
 .config_JTAGEN
                  0x02af28          0x2 build/default/debug/pic24fj256ga702/mcc_generated_files/mcc.o

.config_DNVPEN    0x02af24          0x2
 .config_DNVPEN
                  0x02af24          0x2 build/default/debug/pic24fj256ga702/mcc_generated_files/mcc.o

.config_WDTCLK    0x02af20          0x2
 .config_WDTCLK
                  0x02af20          0x2 build/default/debug/pic24fj256ga702/mcc_generated_files/mcc.o

.config_FCKSM     0x02af1c          0x2
 .config_FCKSM    0x02af1c          0x2 build/default/debug/pic24fj256ga702/mcc_generated_files/mcc.o

.config_IESO      0x02af18          0x2
 .config_IESO     0x02af18          0x2 build/default/debug/pic24fj256ga702/mcc_generated_files/mcc.o

.config_BSLIM     0x02af10          0x2
 .config_BSLIM    0x02af10          0x2 build/default/debug/pic24fj256ga702/mcc_generated_files/mcc.o

pic24fj256ga702/wombatasm.s.scn1
                  0x01f800          0x2
 pic24fj256ga702/wombatasm.s.scn1
                  0x01f800          0x2 build/default/debug/pic24fj256ga702/wombatasm.o

.const              0xf802        0x272 load address 0x01f802  
 .const             0xf802        0x100 build/default/debug/PS2Keyboard.o
                    0xf802                  _KBSCSet2
 .const             0xf902         0x80 build/default/debug/TM1637.o
                    0xf902                  _seven_seg_table
 .const             0xf982         0x7a build/default/debug/pic24fj256ga702/pinDigitalHwSpecific.o
                    0xf982                  _pinPort
                    0xf996                  _pinBitmap
                    0xf9be                  _pinPPSInputMap
                    0xf9d2                  _WombatPinToADCChannel
 .const             0xf9fc         0x22 build/default/debug/outputScale.o
                    0xf9fc                  _outputSamplePeriodMask
 .const             0xfa1e         0x22 build/default/debug/inputProcess.o
                    0xfa1e                  _inputProcessSamplePeriodMask
 .const             0xfa40         0x12 build/default/debug/uartHw.o
                    0xfa40                  _baudDivisor
 .const             0xfa52         0x12 build/default/debug/uartSw.o
                    0xfa52                  _swBaudDivisor
 .const             0xfa64         0x10 build/default/debug/matrixKeypad.o

.text             0x0056c6       0x9614
 .text            0x0056c6       0x178c build/default/debug/protocol.o
                  0x0056c6                  _uartStartTX
                  0x005714                  _error
                  0x005744                  _ProcessSetPin
                  0x005956                  _crcAppSpace
                  0x005a04                  _ProcessRxbuffer
                  0x006cf2                  _ProcessRx
                  0x006dcc                  _processCapturedCommands
 .text            0x006e52        0xef2 build/default/debug/timingResource.o
                  0x006e52                  _timingResourceDefault
                  0x006edc                  _timingResourceManagerInit
                  0x006eee                  _timingResourceHighPulseClaim
                  0x006f46                  _timingResourcePWMClaim
                  0x00703a                  _timingResourceRelease
                  0x007092                  _timingResourcesHighPulse
                  0x007192                  _timingResourcePWM
                  0x00788e                  _timingResourceHighPulseBusy
                  0x0078f8                  _timingResourceService
                  0x007904                  _timingResourceInterruptClaim
                  0x007ad0                  _timingResourceInterruptActivate
                  0x007b78                  _timingResourceBusyWait
                  0x007bde                  _timingResourceCounterClaim
                  0x007c9e                  _timingResourceReadCounter
                  0x007d06                  _timingResourceResetCounter
                  0x007d22                  _timingResourceGenericClaim
 .text            0x007d44        0x8d4 build/default/debug/liquidCrystal.o
                  0x007d44                  _lcd_setdata
                  0x007e90                  _lcd_setdata2
                  0x007ff2                  _initLiquidCrystal
                  0x008378                  _updateLiquidCrystal
 .text            0x008618        0x754 build/default/debug/ws2812.o
                  0x008618                  _ws2812_SPI1_Initialize
                  0x008632                  _ws2812ConfigHardware
                  0x008652                  _queue1Bit
                  0x00865e                  _queue0Bit
                  0x00866a                  _QueueRGB
                  0x0088a4                  _SendResetSignal
                  0x0088b2                  _StartDMA
                  0x0088da                  _StopDMA
                  0x0088de                  _initWS2812
                  0x008b4e                  _updateWS2812
 .text            0x008d6c        0x62e build/default/debug/PS2Keyboard.o
                  0x008d6c                  _initPS2Keyboard
                  0x0090a8                  _ps2kb_processAscii
                  0x00915a                  _ps2kb_processCurrentlyPressed
                  0x0091be                  _ps2kb_processMakeCodes
                  0x009202                  _ps2kb_processData
                  0x00929c                  _updatePS2Keyboard
 .text            0x00939a        0x622 build/default/debug/outputScale.o
                  0x00939a                  _outputScaleInit
                  0x0093cc                  _outputScaleProcess
                  0x00968e                  _outputScaleResetTimeout
                  0x009694                  _outputScaleCommProcess
 .text            0x0099bc        0x5e2 build/default/debug/TM1637.o
                  0x0099bc                  _tm1637Start
                  0x0099c4                  _tm1637Stop
                  0x0099e2                  _tm1637ClockByte
                  0x009a40                  _tm1637_hwinit
                  0x009a4c                  _tm1637SendInitialAddress
                  0x009a6e                  _tm1637SendDisplayControlCommand
                  0x009a76                  _initTM1637
                  0x009cce                  _tm1637UpdateRender
                  0x009e5a                  _updateTM1637
 .text            0x009f9e        0x582 build/default/debug/matrixKeypad.o
                  0x009fc4                  _initMatrixKeypad
                  0x00a37a                  _updateMatrixKeypad
 .text            0x00a520        0x514 build/default/debug/pic24fj256ga702/pinDigitalHwSpecific.o
                  0x00a520                  _SetPPSOutput
                  0x00a632                  _CurrentPinBitmap
                  0x00a646                  _ConfigurePinAnalog
                  0x00a698                  _PinIsAnalogCapable
                  0x00a6a8                  _CurrentPinPort
                  0x00a6ba                  _ReadPin
                  0x00a6ea                  _PinOutput
                  0x00a722                  _PinInput
                  0x00a754                  _CurrentPinRead
                  0x00a758                  _pinIsPPSCapable
                  0x00a770                  _SetPin
                  0x00a85e                  _CurrentPinInput
                  0x00a862                  _CurrentPinAnalog
                  0x00a88c                  _SetPinQuick
                  0x00a88e                  _SetCurrentPin
                  0x00a894                  _PinLow
                  0x00a898                  _PinHigh
                  0x00a89c                  _SetPinPullUp
                  0x00a8e6                  _SetPinPullDown
                  0x00a930                  _SetPinOpenDrain
                  0x00a97a                  _PinPullUp
                  0x00a98e                  _PinNoPullUp
                  0x00a992                  _PinPullDown
                  0x00a9a6                  _PinNoPullDown
                  0x00a9aa                  _PinOD
                  0x00a9ae                  _PinNoOD
                  0x00a9b2                  _CurrentPinHigh
                  0x00a9b8                  _InitializePinLow
                  0x00aa1a                  _CurrentPinLow
                  0x00aa20                  _CurrentPinPullUp
                  0x00aa24                  _CurrentPinNoPullUp
                  0x00aa2a                  _CurrentPinPullDown
                  0x00aa2e                  _CurrentPinNoPullDown
 .text            0x00aa34        0x4f6 build/default/debug/pic24fj256ga702/updatePulse.o
                  0x00aa34                  _updatePulseOutput
                  0x00ac18                  _updateBitStreamOutput
                  0x00acf8                  _initializeBitStreamOutput
                  0x00ad42                  _removeBitStreamOutput
                  0x00ada0                  _PulseInGetOldestDMABit
                  0x00ae04                  _PulseInDiscardUntilLow
                  0x00ae72                  _PulseInSkipDMABits
                  0x00aed4                  _PulseInGetOldestDMASample
 .text            0x00af2a        0x4c2 build/default/debug/quadEnc.o
                  0x00af2a                  _initQuadEnc
                  0x00b260                  _updateQuadEnc
 .text            0x00b3ec        0x4a4 build/default/debug/uartSw.o
                  0x00b3ec                  _initUARTSw
                  0x00b634                  _updateUARTSwTx
                  0x00b756                  _updateUARTSwRx
                  0x00b878                  _updateUARTSw
 .text            0x00b890        0x420 build/default/debug/pic24fj256ga702/mcc_generated_files/dma.o
                  0x00b890                  _DMA_Initialize
                  0x00b906                  _DMA_Channel0_CallBack
                  0x00b908                  _DMA_Channel1_CallBack
                  0x00b90a                  _DMA__Channel1_Tasks
                  0x00b918                  _DMA_Channel2_CallBack
                  0x00b91a                  _DMA__Channel2_Tasks
                  0x00b928                  _DMA_Channel3_CallBack
                  0x00b92a                  _DMA__Channel3_Tasks
                  0x00b938                  _DMA_Channel4_CallBack
                  0x00b93a                  _DMA__Channel4_Tasks
                  0x00b948                  _DMA_Channel5_CallBack
                  0x00b94a                  _DMA__Channel5_Tasks
                  0x00b958                  _DMA_ChannelEnable
                  0x00b98a                  _DMA_ChannelDisable
                  0x00b9bc                  _DMA_TransferCountSet
                  0x00b9ee                  _DMA_TransferCountGet
                  0x00ba20                  _DMA_SoftwareTriggerEnable
                  0x00ba52                  _DMA_SourceAddressSet
                  0x00ba84                  _DMA_DestinationAddressSet
                  0x00bab6                  _DMA_IsSoftwareRequestPending
                  0x00bb00                  _DMA_IsBufferedWriteComplete
                  0x00bb3e                  _DMA_IsHighAddressLimitFlagSet
                  0x00bb88                  _DMA_IsLowAddressLimitFlagSet
                  0x00bbd2                  _DMA_IsOperationDone
                  0x00bc1c                  _DMA_IsOverrunFlagSet
                  0x00bc66                  _DMA_IsOperationHalfComplete
 .text            0x00bcb0        0x420 build/default/debug/vga.o
                  0x00bcf4                  _vga_SPI1_Initialize
                  0x00bd0e                  _VGAStartDMA
                  0x00bd24                  _VGAStopDMA
                  0x00bd28                  _initVGA
                  0x00c036                  _updateVGA
                  0x00c038                  _VGA_dma_interrupt
 .text            0x00c0d0        0x3f6 build/default/debug/inputProcess.o
                  0x00c0d0                  _inputProcessInit
                  0x00c0f4                  _inputProcessProcess
                  0x00c2e8                  _inputProcessCommProcess
 .text            0x00c4c6        0x3ee build/default/debug/pic24fj256ga702/mcc_generated_files/crc.o
                  0x00c4c6                  _CRC_Initialize
                  0x00c4f2                  _CRC_SeedSet
                  0x00c568                  _CRC_CalculateBufferStart
                  0x00c58c                  _CRC_CalculateProgramStart
                  0x00c5b8                  _CRC_CallBack
                  0x00c5ba                  _CRC_Task
                  0x00c792                  _CRC_CalculationIsDone
                  0x00c7a2                  _CRC_CalculationResultRawGet
                  0x00c7d6                  _CRC_CalculationResultReverseGet
                  0x00c814                  _CRC_CalculationResultXORGet
                  0x00c852                  _CRC_CalculationResultGet
 .text            0x00c8b4        0x38e build/default/debug/pic24fj256ga702/mcc_generated_files/adc1.o
                  0x00c8b4                  _ADC1_ResetConditions
                  0x00c8c4                  _ADC1_Initialize
                  0x00c974                  _GetADCConversion
                  0x00c9d0                  _GetAddressPinVoltage_mV
                  0x00ca82                  _GetCurrentPinReistanceOhmsSetup
                  0x00cade                  _GetCurrentPinReistanceOhmsRead
                  0x00cb0e                  _GetTemperature_degC100ths
                  0x00cbea                  _GetSourceVoltage_mV
                  0x00cbf6                  _GetSourceVoltageADC
                  0x00cbfa                  _GetVBgCountsVsVRefPin
 .text            0x00cc42        0x36c build/default/debug/uartHw.o
                  0x00cc42                  _initUARTHw
                  0x00cf84                  _updateUARTHw
 .text            0x00cfae        0x368 build/default/debug/touch.o
                  0x00cfae                  _touchCallback
                  0x00cfb2                  _initTouch
                  0x00d116                  _touchProcessDigital
                  0x00d1a8                  _updateTouch
 .text            0x00d316        0x344 build/default/debug/pulseOnChange.o
                  0x00d316                  _initPulseOnChange
                  0x00d4aa                  _updatePulseOnChange
 .text            0x00d65a        0x2fe build/default/debug/pulseTimer.o
                  0x00d65a                  _initPulseTimer
                  0x00d7c0                  _updatePulseTimer
 .text            0x00d958        0x2b2 build/default/debug/main.o
                  0x00d958                  _reset
                  0x00d95a                  _ProcessPins
                  0x00db4c                  _main
 .text            0x00dc0a        0x262 build/default/debug/pinRegisters.o
                  0x00dc0a                  _pinRegisterSizeCheck
                  0x00dc0c                  _SetBuffer
                  0x00dc1c                  _wrandom
                  0x00dc58                  _GetBuffer
                  0x00de44                  _SetMode
                  0x00de54                  _GetMode
 .text            0x00de6c        0x25e build/default/debug/pic24fj256ga702/mcc_generated_files/uart1.o
                  0x00de6c                  _UART1_Initialize
                  0x00deae                  _UART1_Read
                  0x00deee                  _UART1_ReadBuffer
                  0x00df22                  _UART1_Write
                  0x00df6a                  _UART1_WriteBuffer
                  0x00df9a                  _UART1_TransferStatusGet
                  0x00dfbe                  _UART1_Peek
                  0x00dfe2                  _UART1_PeekSafe
                  0x00e04c                  _UART1_ReceiveBufferSizeGet
                  0x00e074                  _UART1_TransmitBufferSizeGet
                  0x00e09a                  _UART1_ReceiveBufferIsEmpty
                  0x00e0a8                  _UART1_TransmitBufferIsFull
                  0x00e0b6                  _UART1_StatusGet
                  0x00e0ba                  _UART1_Enable
                  0x00e0c0                  _UART1_Disable
 .text            0x00e0ca        0x248 build/default/debug/pic24fj256ga702/mcc_generated_files/uart2.o
                  0x00e0ca                  _UART2_Initialize
                  0x00e0f4                  _UART2_Read
                  0x00e138                  _UART2_ReadBuffer
                  0x00e16c                  _UART2_Write
                  0x00e1b4                  _UART2_WriteBuffer
                  0x00e1e4                  _UART2_TransferStatusGet
                  0x00e208                  _UART2_Peek
                  0x00e22c                  _UART2_PeekSafe
                  0x00e296                  _UART2_ReceiveBufferSizeGet
                  0x00e2bc                  _UART2_TransmitBufferSizeGet
                  0x00e2e2                  _UART2_ReceiveBufferIsEmpty
                  0x00e2f0                  _UART2_TransmitBufferIsFull
                  0x00e2fe                  _UART2_StatusGet
                  0x00e302                  _UART2_Enable
                  0x00e308                  _UART2_Disable
 .text            0x00e312        0x232 build/default/debug/queue.o
                  0x00e338                  _QueueByteInitialize
                  0x00e35c                  _QueueByteShiftInitialize
                  0x00e392                  _QueueGetBytesFilledInQueue
                  0x00e3ba                  _QueueGetBytesFreeInQueue
                  0x00e3ee                  _QueueAddByte
                  0x00e46e                  _QueueReadByte
                  0x00e4ca                  _QueuePeekByte
                  0x00e50a                  _QueueCopy
 .text            0x00e544        0x210 build/default/debug/pic24fj256ga702/wombatasm.o
                  0x00e544                  _orCount
                  0x00e54a                  _or128
                  0x00e64c                  _andCount
                  0x00e652                  _and128
 .text            0x00e754        0x1ea build/default/debug/servo.o
                  0x00e754                  _initServoHwSimple
                  0x00e772                  _initServoHw
                  0x00e836                  _updateServoHw
 .text            0x00e93e        0x1de build/default/debug/HSCounter.o
                  0x00e93e                  _initHSCounter
                  0x00ea6e                  _updateHSCounter
 .text            0x00eb1c        0x1be build/default/debug/ultrasonicDistance.o
                  0x00eb1c                  _initUltrasonicDistance
                  0x00ec14                  _updateUltrasonicDistance

.dinit            0x01fa74        0x184
 .dinit           0x01fa74        0x184 data_init

.NVM_flash        0x00ecda        0x168
 .NVM_flash       0x00ecda        0x168 build/default/debug/pic24fj256ga702/mcc_generated_files/memory/flash.o
                  0x00ecdc                  _FLASH_Unlock
                  0x00ece6                  _FLASH_Lock
                  0x00ecf4                  _FLASH_SendNvmKey
                  0x00ed12                  _FLASH_ReadWord24
                  0x00ed20                  _FLASH_ReadWord16
                  0x00ed2c                  _FLASH_ErasePage
                  0x00ed50                  _FLASH_WriteDoubleWord24
                  0x00ed88                  _FLASH_WriteDoubleWord16
                  0x00edc2                  _FLASH_WriteRow24
                  0x00edfa                  _FLASH_WriteRow16
                  0x00ee32                  _FLASH_GetErasePageOffset
                  0x00ee38                  _FLASH_GetErasePageAddress

.text             0x00ee42        0xffc
 .text            0x00ee42        0x152 build/default/debug/pwm.o
                  0x00ee42                  _updatePWM
                  0x00ee64                  _initPWMSimple
                  0x00eea2                  _initPWM
 .text            0x00ef94        0x148 build/default/debug/resistanceInput.o
                  0x00ef94                  _updateResistanceInput
                  0x00f000                  _initResistanceInputSimple
                  0x00f030                  _initResistanceInput
 .text            0x00f0dc        0x136 build/default/debug/HSClock.o
                  0x00f0dc                  _initHSClock
                  0x00f210                  _updateHSClock
 .text            0x00f212        0x12c build/default/debug/analogInput.o
                  0x00f212                  _initAnalogInput
                  0x00f2fe                  _updateAnalogInput
                  0x00f32c                  _initAnalogSimple
 .text            0x00f33e        0x122 build/default/debug/debounce.o
                  0x00f33e                  _initDebounce
                  0x00f3ea                  _updateDebounce
 .text            0x00f460        0x122 build/default/debug/hfServo.o
                  0x00f460                  _initHfServo
                  0x00f540                  _updateHfServo
 .text            0x00f582        0x108 build/default/debug/asciiConversion.o
                  0x00f582                  _ascii_to_val
                  0x00f5bc                  _uint16ToAscii5
                  0x00f610                  _uint16ToAscii5NoHWMath
                  0x00f668                  _uint16ToAsciiHex4
 .text            0x00f68a         0xf6 build/default/debug/pic24fj256ga702/mcc_generated_files/i2c2.o
                  0x00f68a                  _I2C2_Initialize
                  0x00f6ba                  _I2C2_PeriphAddressMaskSet
                  0x00f6be                  _I2C2_PeriphAddressSet
                  0x00f6d6                  _I2C2_TransmitProcess
                  0x00f6f2                  _I2C2_ReceiveProcess
                  0x00f726                  _i2cHealthMonitor
 .text            0x00f780         0xd6 build/default/debug/protectedOutput.o
                  0x00f780                  _initProtectedOutput
                  0x00f7e0                  _updateProtectedOutput
 .text            0x00f856         0xbe build/default/debug/watchdog.o
                  0x00f856                  _initWatchdog
                  0x00f8de                  _updateWatchdog
 .text            0x00f914         0xb8 build/default/debug/pic24fj256ga702/mcc_generated_files/i2c1.o
                  0x00f914                  _I2C1_Initialize
                  0x00f930                  _I2C1_ErrorCountGet
                  0x00f934                  _I2C1_MasterTRBInsert
                  0x00f974                  _I2C1_MasterRead
                  0x00f992                  _I2C1_MasterWrite
                  0x00f9ac                  _I2C1_MasterReadTRBBuild
                  0x00f9b8                  _I2C1_MasterWriteTRBBuild
                  0x00f9c0                  _I2C1_MasterQueueIsEmpty
                  0x00f9c6                  _I2C1_MasterQueueIsFull
 .text            0x00f9cc         0xb8 build/default/debug/pic24fj256ga702/mcc_generated_files/i2c2Controller.o
                  0x00f9cc                  _I2C2_Controller_Initialize
                  0x00f9e8                  _I2C2_ErrorCountGet
                  0x00f9ec                  _I2C2_ControllerTRBInsert
                  0x00fa2c                  _I2C2_ControllerRead
                  0x00fa4a                  _I2C2_ControllerWrite
                  0x00fa64                  _I2C2_ControllerReadTRBBuild
                  0x00fa70                  _I2C2_ControllerWriteTRBBuild
                  0x00fa78                  _I2C2_ControllerQueueIsEmpty
                  0x00fa7e                  _I2C2_ControllerQueueIsFull
 .text            0x00fa84         0xa8 build/default/debug/throughputConsumer.o
                  0x00fa84                  _initThroughputConsumer
                  0x00fb0a                  _updateThroughputConsumer
 .text            0x00fb2c         0x94 build/default/debug/pic24fj256ga702/mcc_generated_files/system.o
                  0x00fb2c                  _SYSTEM_Initialize
 .text            0x00fbc0         0x8c build/default/debug/pic24fj256ga702/mcc_generated_files/tmr2.o
                  0x00fbc0                  _TMR2_CallBack
                  0x00fbd8                  _TMR2_Initialize
                  0x00fc04                  _TMR2_Period16BitSet
                  0x00fc0c                  _TMR2_Period16BitGet
                  0x00fc10                  _TMR2_Counter16BitSet
                  0x00fc18                  _TMR2_Counter16BitGet
                  0x00fc1c                  _TMR2_SetInterruptHandler
                  0x00fc24                  _TMR2_Start
                  0x00fc2e                  _TMR2_Stop
                  0x00fc34                  _TMR2_GetElapsedThenClear
                  0x00fc40                  _TMR2_SoftwareCounterGet
                  0x00fc46                  _TMR2_SoftwareCounterClear
 .text            0x00fc4c         0x68 build/default/debug/pic24fj256ga702/mcc_generated_files/tmr1.o
                  0x00fc4c                  _TMR1_Initialize
                  0x00fc5c                  _TMR1_Tasks_16BitOperation
                  0x00fc6e                  _TMR1_Period16BitSet
                  0x00fc76                  _TMR1_Period16BitGet
                  0x00fc7a                  _TMR1_Counter16BitSet
                  0x00fc82                  _TMR1_Counter16BitGet
                  0x00fc86                  _TMR1_Start
                  0x00fc8e                  _TMR1_Stop
                  0x00fc92                  _TMR1_GetElapsedThenClear
                  0x00fc9e                  _TMR1_SoftwareCounterGet
                  0x00fca4                  _TMR1_SoftwareCounterClear
                  0x00fcaa                  _TMR1_ResetConditions
 .text            0x00fcb4         0x66 build/default/debug/pinInputProcessor.o
                  0x00fcb4                  _initPinInputProcessor
                  0x00fce8                  _updatePinInputProcessor
 .text            0x00fd1a         0x64 build/default/debug/pic24fj256ga702/mcc_generated_files/tmr3.o
                  0x00fd1a                  _TMR3_Initialize
                  0x00fd28                  _TMR3_Tasks_16BitOperation
                  0x00fd3a                  _TMR3_Period16BitSet
                  0x00fd42                  _TMR3_Period16BitGet
                  0x00fd46                  _TMR3_Counter16BitSet
                  0x00fd4e                  _TMR3_Counter16BitGet
                  0x00fd52                  _TMR3_Start
                  0x00fd5a                  _TMR3_Stop
                  0x00fd5e                  _TMR3_GetElapsedThenClear
                  0x00fd6a                  _TMR3_SoftwareCounterGet
                  0x00fd70                  _TMR3_SoftwareCounterClear
                  0x00fd76                  _TMR3_ResetConditions
 .text            0x00fd7e         0x48 build/default/debug/pic24fj256ga702/mcc_generated_files/clock.o
                  0x00fd7e                  _CLOCK_Initialize
 .text            0x00fdc6         0x48 build/default/debug/pic24fj256ga702/mcc_generated_files/pin_manager.o
                  0x00fdc6                  _PIN_MANAGER_Initialize
 .text            0x00fe0e         0x30 build/default/debug/i2cController.o
                  0x00fe0e                  _initi2cController
                  0x00fe3c                  _updatei2cController

.init.delay32     0x00fe3e         0x1c
 .init.delay32    0x00fe3e         0x1c c:/program files/microchip/xc16/v1.70/bin/bin/../../lib\liblega-pic30-elf.a(delay32da.Leo)
                  0x00fe3e                  ___delay32

.text             0x00fe5a         0x16
 .text            0x00fe5a          0xe build/default/debug/pic24fj256ga702/mcc_generated_files/interrupt_manager.o
                  0x00fe5a                  _INTERRUPT_Initialize
 .text            0x00fe68          0x8 build/default/debug/pic24fj256ga702/mcc_generated_files/cvr.o
                  0x00fe68                  _CVR_Initialize

.text             0x01fbf8          0x6
 .text            0x01fbf8          0x6 build/default/debug/pic24fj256ga702/mcc_generated_files/traps.o
                  0x01fbf8                  _TRAPS_halt_on_error

.text             0x00fe70          0x4
 .text            0x00fe70          0x4 build/default/debug/pic24fj256ga702/mcc_generated_files/mcc.o
                  0x00fe70                  _OSCILLATOR_Initialize
